Archive member included because of file (symbol)

/opt/altera/13.0sp1/nios2eds/bin/gnu/H-i686-pc-linux-gnu/bin/../lib/gcc/nios2-elf/4.1.2/mno-hw-mul/libgcc.a(_div_df.o)
                              obj/default/src/hello_ucosii.o (__divdf3)
/opt/altera/13.0sp1/nios2eds/bin/gnu/H-i686-pc-linux-gnu/bin/../lib/gcc/nios2-elf/4.1.2/mno-hw-mul/libgcc.a(_thenan_df.o)
                              /opt/altera/13.0sp1/nios2eds/bin/gnu/H-i686-pc-linux-gnu/bin/../lib/gcc/nios2-elf/4.1.2/mno-hw-mul/libgcc.a(_div_df.o) (__thenan_df)
/opt/altera/13.0sp1/nios2eds/bin/gnu/H-i686-pc-linux-gnu/bin/../lib/gcc/nios2-elf/4.1.2/mno-hw-mul/libgcc.a(_usi_to_df.o)
                              obj/default/src/hello_ucosii.o (__floatunsidf)
/opt/altera/13.0sp1/nios2eds/bin/gnu/H-i686-pc-linux-gnu/bin/../lib/gcc/nios2-elf/4.1.2/mno-hw-mul/libgcc.a(lib2-divmod.o)
                              obj/default/src/hello_ucosii.o (__divsi3)
/opt/altera/13.0sp1/nios2eds/bin/gnu/H-i686-pc-linux-gnu/bin/../lib/gcc/nios2-elf/4.1.2/mno-hw-mul/libgcc.a(lib2-mul.o)
                              obj/default/src/hello_ucosii.o (__mulsi3)
/opt/altera/13.0sp1/nios2eds/bin/gnu/H-i686-pc-linux-gnu/bin/../lib/gcc/nios2-elf/4.1.2/mno-hw-mul/libgcc.a(_clzsi2.o)
                              /opt/altera/13.0sp1/nios2eds/bin/gnu/H-i686-pc-linux-gnu/bin/../lib/gcc/nios2-elf/4.1.2/mno-hw-mul/libgcc.a(_usi_to_df.o) (__clzsi2)
/opt/altera/13.0sp1/nios2eds/bin/gnu/H-i686-pc-linux-gnu/bin/../lib/gcc/nios2-elf/4.1.2/mno-hw-mul/libgcc.a(_pack_df.o)
                              /opt/altera/13.0sp1/nios2eds/bin/gnu/H-i686-pc-linux-gnu/bin/../lib/gcc/nios2-elf/4.1.2/mno-hw-mul/libgcc.a(_div_df.o) (__pack_d)
/opt/altera/13.0sp1/nios2eds/bin/gnu/H-i686-pc-linux-gnu/bin/../lib/gcc/nios2-elf/4.1.2/mno-hw-mul/libgcc.a(_unpack_df.o)
                              /opt/altera/13.0sp1/nios2eds/bin/gnu/H-i686-pc-linux-gnu/bin/../lib/gcc/nios2-elf/4.1.2/mno-hw-mul/libgcc.a(_div_df.o) (__unpack_d)
/opt/altera/13.0sp1/nios2eds/bin/gnu/H-i686-pc-linux-gnu/bin/../lib/gcc/nios2-elf/4.1.2/mno-hw-mul/libgcc.a(_clz.o)
                              /opt/altera/13.0sp1/nios2eds/bin/gnu/H-i686-pc-linux-gnu/bin/../lib/gcc/nios2-elf/4.1.2/mno-hw-mul/libgcc.a(_clzsi2.o) (__clz_tab)
/opt/altera/13.0sp1/nios2eds/bin/gnu/H-i686-pc-linux-gnu/bin/../lib/gcc/nios2-elf/4.1.2/../../../../nios2-elf/lib/mno-hw-mul/libc.a(lib_a-printf.o)
                              obj/default/src/hello_ucosii.o (printf)
/opt/altera/13.0sp1/nios2eds/bin/gnu/H-i686-pc-linux-gnu/bin/../lib/gcc/nios2-elf/4.1.2/../../../../nios2-elf/lib/mno-hw-mul/libc.a(lib_a-putchar.o)
                              obj/default/src/hello_ucosii.o (putchar)
/opt/altera/13.0sp1/nios2eds/bin/gnu/H-i686-pc-linux-gnu/bin/../lib/gcc/nios2-elf/4.1.2/../../../../nios2-elf/lib/mno-hw-mul/libc.a(lib_a-puts.o)
                              obj/default/src/hello_ucosii.o (puts)
/opt/altera/13.0sp1/nios2eds/bin/gnu/H-i686-pc-linux-gnu/bin/../lib/gcc/nios2-elf/4.1.2/../../../../nios2-elf/lib/mno-hw-mul/libc.a(lib_a-strlen.o)
                              /opt/altera/13.0sp1/nios2eds/bin/gnu/H-i686-pc-linux-gnu/bin/../lib/gcc/nios2-elf/4.1.2/../../../../nios2-elf/lib/mno-hw-mul/libc.a(lib_a-puts.o) (strlen)
/opt/altera/13.0sp1/nios2eds/bin/gnu/H-i686-pc-linux-gnu/bin/../lib/gcc/nios2-elf/4.1.2/../../../../nios2-elf/lib/mno-hw-mul/libc.a(lib_a-vfprintf.o)
                              /opt/altera/13.0sp1/nios2eds/bin/gnu/H-i686-pc-linux-gnu/bin/../lib/gcc/nios2-elf/4.1.2/../../../../nios2-elf/lib/mno-hw-mul/libc.a(lib_a-printf.o) (___vfprintf_internal_r)
/opt/altera/13.0sp1/nios2eds/bin/gnu/H-i686-pc-linux-gnu/bin/../lib/gcc/nios2-elf/4.1.2/../../../../nios2-elf/lib/mno-hw-mul/libc.a(lib_a-wsetup.o)
                              /opt/altera/13.0sp1/nios2eds/bin/gnu/H-i686-pc-linux-gnu/bin/../lib/gcc/nios2-elf/4.1.2/../../../../nios2-elf/lib/mno-hw-mul/libc.a(lib_a-vfprintf.o) (__swsetup_r)
/opt/altera/13.0sp1/nios2eds/bin/gnu/H-i686-pc-linux-gnu/bin/../lib/gcc/nios2-elf/4.1.2/../../../../nios2-elf/lib/mno-hw-mul/libc.a(lib_a-dtoa.o)
                              /opt/altera/13.0sp1/nios2eds/bin/gnu/H-i686-pc-linux-gnu/bin/../lib/gcc/nios2-elf/4.1.2/../../../../nios2-elf/lib/mno-hw-mul/libc.a(lib_a-vfprintf.o) (_dtoa_r)
/opt/altera/13.0sp1/nios2eds/bin/gnu/H-i686-pc-linux-gnu/bin/../lib/gcc/nios2-elf/4.1.2/../../../../nios2-elf/lib/mno-hw-mul/libc.a(lib_a-fflush.o)
                              /opt/altera/13.0sp1/nios2eds/bin/gnu/H-i686-pc-linux-gnu/bin/../lib/gcc/nios2-elf/4.1.2/../../../../nios2-elf/lib/mno-hw-mul/libc.a(lib_a-vfprintf.o) (_fflush_r)
/opt/altera/13.0sp1/nios2eds/bin/gnu/H-i686-pc-linux-gnu/bin/../lib/gcc/nios2-elf/4.1.2/../../../../nios2-elf/lib/mno-hw-mul/libc.a(lib_a-findfp.o)
                              /opt/altera/13.0sp1/nios2eds/bin/gnu/H-i686-pc-linux-gnu/bin/../lib/gcc/nios2-elf/4.1.2/../../../../nios2-elf/lib/mno-hw-mul/libc.a(lib_a-vfprintf.o) (__sinit)
/opt/altera/13.0sp1/nios2eds/bin/gnu/H-i686-pc-linux-gnu/bin/../lib/gcc/nios2-elf/4.1.2/../../../../nios2-elf/lib/mno-hw-mul/libc.a(lib_a-freer.o)
                              /opt/altera/13.0sp1/nios2eds/bin/gnu/H-i686-pc-linux-gnu/bin/../lib/gcc/nios2-elf/4.1.2/../../../../nios2-elf/lib/mno-hw-mul/libc.a(lib_a-wsetup.o) (_free_r)
/opt/altera/13.0sp1/nios2eds/bin/gnu/H-i686-pc-linux-gnu/bin/../lib/gcc/nios2-elf/4.1.2/../../../../nios2-elf/lib/mno-hw-mul/libc.a(lib_a-fvwrite.o)
                              /opt/altera/13.0sp1/nios2eds/bin/gnu/H-i686-pc-linux-gnu/bin/../lib/gcc/nios2-elf/4.1.2/../../../../nios2-elf/lib/mno-hw-mul/libc.a(lib_a-puts.o) (__sfvwrite_r)
/opt/altera/13.0sp1/nios2eds/bin/gnu/H-i686-pc-linux-gnu/bin/../lib/gcc/nios2-elf/4.1.2/../../../../nios2-elf/lib/mno-hw-mul/libc.a(lib_a-fwalk.o)
                              /opt/altera/13.0sp1/nios2eds/bin/gnu/H-i686-pc-linux-gnu/bin/../lib/gcc/nios2-elf/4.1.2/../../../../nios2-elf/lib/mno-hw-mul/libc.a(lib_a-fflush.o) (_fwalk_reent)
/opt/altera/13.0sp1/nios2eds/bin/gnu/H-i686-pc-linux-gnu/bin/../lib/gcc/nios2-elf/4.1.2/../../../../nios2-elf/lib/mno-hw-mul/libc.a(lib_a-impure.o)
                              /opt/altera/13.0sp1/nios2eds/bin/gnu/H-i686-pc-linux-gnu/bin/../lib/gcc/nios2-elf/4.1.2/../../../../nios2-elf/lib/mno-hw-mul/libc.a(lib_a-printf.o) (_impure_ptr)
/opt/altera/13.0sp1/nios2eds/bin/gnu/H-i686-pc-linux-gnu/bin/../lib/gcc/nios2-elf/4.1.2/../../../../nios2-elf/lib/mno-hw-mul/libc.a(lib_a-locale.o)
                              /opt/altera/13.0sp1/nios2eds/bin/gnu/H-i686-pc-linux-gnu/bin/../lib/gcc/nios2-elf/4.1.2/../../../../nios2-elf/lib/mno-hw-mul/libc.a(lib_a-vfprintf.o) (_localeconv_r)
/opt/altera/13.0sp1/nios2eds/bin/gnu/H-i686-pc-linux-gnu/bin/../lib/gcc/nios2-elf/4.1.2/../../../../nios2-elf/lib/mno-hw-mul/libc.a(lib_a-makebuf.o)
                              /opt/altera/13.0sp1/nios2eds/bin/gnu/H-i686-pc-linux-gnu/bin/../lib/gcc/nios2-elf/4.1.2/../../../../nios2-elf/lib/mno-hw-mul/libc.a(lib_a-wsetup.o) (__smakebuf_r)
/opt/altera/13.0sp1/nios2eds/bin/gnu/H-i686-pc-linux-gnu/bin/../lib/gcc/nios2-elf/4.1.2/../../../../nios2-elf/lib/mno-hw-mul/libc.a(lib_a-mallocr.o)
                              /opt/altera/13.0sp1/nios2eds/bin/gnu/H-i686-pc-linux-gnu/bin/../lib/gcc/nios2-elf/4.1.2/../../../../nios2-elf/lib/mno-hw-mul/libc.a(lib_a-findfp.o) (_malloc_r)
/opt/altera/13.0sp1/nios2eds/bin/gnu/H-i686-pc-linux-gnu/bin/../lib/gcc/nios2-elf/4.1.2/../../../../nios2-elf/lib/mno-hw-mul/libc.a(lib_a-memchr.o)
                              /opt/altera/13.0sp1/nios2eds/bin/gnu/H-i686-pc-linux-gnu/bin/../lib/gcc/nios2-elf/4.1.2/../../../../nios2-elf/lib/mno-hw-mul/libc.a(lib_a-vfprintf.o) (memchr)
/opt/altera/13.0sp1/nios2eds/bin/gnu/H-i686-pc-linux-gnu/bin/../lib/gcc/nios2-elf/4.1.2/../../../../nios2-elf/lib/mno-hw-mul/libc.a(lib_a-memcpy.o)
                              /opt/altera/13.0sp1/nios2eds/bin/gnu/H-i686-pc-linux-gnu/bin/../lib/gcc/nios2-elf/4.1.2/../../../../nios2-elf/lib/mno-hw-mul/libc.a(lib_a-dtoa.o) (memcpy)
/opt/altera/13.0sp1/nios2eds/bin/gnu/H-i686-pc-linux-gnu/bin/../lib/gcc/nios2-elf/4.1.2/../../../../nios2-elf/lib/mno-hw-mul/libc.a(lib_a-memmove.o)
                              /opt/altera/13.0sp1/nios2eds/bin/gnu/H-i686-pc-linux-gnu/bin/../lib/gcc/nios2-elf/4.1.2/../../../../nios2-elf/lib/mno-hw-mul/libc.a(lib_a-fvwrite.o) (memmove)
/opt/altera/13.0sp1/nios2eds/bin/gnu/H-i686-pc-linux-gnu/bin/../lib/gcc/nios2-elf/4.1.2/../../../../nios2-elf/lib/mno-hw-mul/libc.a(lib_a-memset.o)
                              /opt/altera/13.0sp1/nios2eds/bin/gnu/H-i686-pc-linux-gnu/bin/../lib/gcc/nios2-elf/4.1.2/../../../../nios2-elf/lib/mno-hw-mul/libc.a(lib_a-findfp.o) (memset)
/opt/altera/13.0sp1/nios2eds/bin/gnu/H-i686-pc-linux-gnu/bin/../lib/gcc/nios2-elf/4.1.2/../../../../nios2-elf/lib/mno-hw-mul/libc.a(lib_a-mprec.o)
                              /opt/altera/13.0sp1/nios2eds/bin/gnu/H-i686-pc-linux-gnu/bin/../lib/gcc/nios2-elf/4.1.2/../../../../nios2-elf/lib/mno-hw-mul/libc.a(lib_a-dtoa.o) (_Bfree)
/opt/altera/13.0sp1/nios2eds/bin/gnu/H-i686-pc-linux-gnu/bin/../lib/gcc/nios2-elf/4.1.2/../../../../nios2-elf/lib/mno-hw-mul/libc.a(lib_a-putc.o)
                              /opt/altera/13.0sp1/nios2eds/bin/gnu/H-i686-pc-linux-gnu/bin/../lib/gcc/nios2-elf/4.1.2/../../../../nios2-elf/lib/mno-hw-mul/libc.a(lib_a-putchar.o) (_putc_r)
/opt/altera/13.0sp1/nios2eds/bin/gnu/H-i686-pc-linux-gnu/bin/../lib/gcc/nios2-elf/4.1.2/../../../../nios2-elf/lib/mno-hw-mul/libc.a(lib_a-reallocr.o)
                              /opt/altera/13.0sp1/nios2eds/bin/gnu/H-i686-pc-linux-gnu/bin/../lib/gcc/nios2-elf/4.1.2/../../../../nios2-elf/lib/mno-hw-mul/libc.a(lib_a-fvwrite.o) (_realloc_r)
/opt/altera/13.0sp1/nios2eds/bin/gnu/H-i686-pc-linux-gnu/bin/../lib/gcc/nios2-elf/4.1.2/../../../../nios2-elf/lib/mno-hw-mul/libc.a(lib_a-s_isinfd.o)
                              /opt/altera/13.0sp1/nios2eds/bin/gnu/H-i686-pc-linux-gnu/bin/../lib/gcc/nios2-elf/4.1.2/../../../../nios2-elf/lib/mno-hw-mul/libc.a(lib_a-vfprintf.o) (__isinfd)
/opt/altera/13.0sp1/nios2eds/bin/gnu/H-i686-pc-linux-gnu/bin/../lib/gcc/nios2-elf/4.1.2/../../../../nios2-elf/lib/mno-hw-mul/libc.a(lib_a-s_isnand.o)
                              /opt/altera/13.0sp1/nios2eds/bin/gnu/H-i686-pc-linux-gnu/bin/../lib/gcc/nios2-elf/4.1.2/../../../../nios2-elf/lib/mno-hw-mul/libc.a(lib_a-vfprintf.o) (__isnand)
/opt/altera/13.0sp1/nios2eds/bin/gnu/H-i686-pc-linux-gnu/bin/../lib/gcc/nios2-elf/4.1.2/../../../../nios2-elf/lib/mno-hw-mul/libc.a(lib_a-sbrkr.o)
                              /opt/altera/13.0sp1/nios2eds/bin/gnu/H-i686-pc-linux-gnu/bin/../lib/gcc/nios2-elf/4.1.2/../../../../nios2-elf/lib/mno-hw-mul/libc.a(lib_a-freer.o) (_sbrk_r)
/opt/altera/13.0sp1/nios2eds/bin/gnu/H-i686-pc-linux-gnu/bin/../lib/gcc/nios2-elf/4.1.2/../../../../nios2-elf/lib/mno-hw-mul/libc.a(lib_a-stdio.o)
                              /opt/altera/13.0sp1/nios2eds/bin/gnu/H-i686-pc-linux-gnu/bin/../lib/gcc/nios2-elf/4.1.2/../../../../nios2-elf/lib/mno-hw-mul/libc.a(lib_a-findfp.o) (__sclose)
/opt/altera/13.0sp1/nios2eds/bin/gnu/H-i686-pc-linux-gnu/bin/../lib/gcc/nios2-elf/4.1.2/../../../../nios2-elf/lib/mno-hw-mul/libc.a(lib_a-strcmp.o)
                              /opt/altera/13.0sp1/nios2eds/bin/gnu/H-i686-pc-linux-gnu/bin/../lib/gcc/nios2-elf/4.1.2/../../../../nios2-elf/lib/mno-hw-mul/libc.a(lib_a-locale.o) (strcmp)
/opt/altera/13.0sp1/nios2eds/bin/gnu/H-i686-pc-linux-gnu/bin/../lib/gcc/nios2-elf/4.1.2/../../../../nios2-elf/lib/mno-hw-mul/libc.a(lib_a-wbuf.o)
                              /opt/altera/13.0sp1/nios2eds/bin/gnu/H-i686-pc-linux-gnu/bin/../lib/gcc/nios2-elf/4.1.2/../../../../nios2-elf/lib/mno-hw-mul/libc.a(lib_a-putc.o) (__swbuf_r)
/opt/altera/13.0sp1/nios2eds/bin/gnu/H-i686-pc-linux-gnu/bin/../lib/gcc/nios2-elf/4.1.2/../../../../nios2-elf/lib/mno-hw-mul/libc.a(lib_a-writer.o)
                              /opt/altera/13.0sp1/nios2eds/bin/gnu/H-i686-pc-linux-gnu/bin/../lib/gcc/nios2-elf/4.1.2/../../../../nios2-elf/lib/mno-hw-mul/libc.a(lib_a-stdio.o) (_write_r)
/opt/altera/13.0sp1/nios2eds/bin/gnu/H-i686-pc-linux-gnu/bin/../lib/gcc/nios2-elf/4.1.2/../../../../nios2-elf/lib/mno-hw-mul/libc.a(lib_a-callocr.o)
                              /opt/altera/13.0sp1/nios2eds/bin/gnu/H-i686-pc-linux-gnu/bin/../lib/gcc/nios2-elf/4.1.2/../../../../nios2-elf/lib/mno-hw-mul/libc.a(lib_a-mprec.o) (_calloc_r)
/opt/altera/13.0sp1/nios2eds/bin/gnu/H-i686-pc-linux-gnu/bin/../lib/gcc/nios2-elf/4.1.2/../../../../nios2-elf/lib/mno-hw-mul/libc.a(lib_a-closer.o)
                              /opt/altera/13.0sp1/nios2eds/bin/gnu/H-i686-pc-linux-gnu/bin/../lib/gcc/nios2-elf/4.1.2/../../../../nios2-elf/lib/mno-hw-mul/libc.a(lib_a-stdio.o) (_close_r)
/opt/altera/13.0sp1/nios2eds/bin/gnu/H-i686-pc-linux-gnu/bin/../lib/gcc/nios2-elf/4.1.2/../../../../nios2-elf/lib/mno-hw-mul/libc.a(lib_a-fclose.o)
                              /opt/altera/13.0sp1/nios2eds/bin/gnu/H-i686-pc-linux-gnu/bin/../lib/gcc/nios2-elf/4.1.2/../../../../nios2-elf/lib/mno-hw-mul/libc.a(lib_a-findfp.o) (fclose)
/opt/altera/13.0sp1/nios2eds/bin/gnu/H-i686-pc-linux-gnu/bin/../lib/gcc/nios2-elf/4.1.2/../../../../nios2-elf/lib/mno-hw-mul/libc.a(lib_a-fstatr.o)
                              /opt/altera/13.0sp1/nios2eds/bin/gnu/H-i686-pc-linux-gnu/bin/../lib/gcc/nios2-elf/4.1.2/../../../../nios2-elf/lib/mno-hw-mul/libc.a(lib_a-makebuf.o) (_fstat_r)
/opt/altera/13.0sp1/nios2eds/bin/gnu/H-i686-pc-linux-gnu/bin/../lib/gcc/nios2-elf/4.1.2/../../../../nios2-elf/lib/mno-hw-mul/libc.a(lib_a-int_errno.o)
                              /opt/altera/13.0sp1/nios2eds/bin/gnu/H-i686-pc-linux-gnu/bin/../lib/gcc/nios2-elf/4.1.2/../../../../nios2-elf/lib/mno-hw-mul/libc.a(lib_a-sbrkr.o) (errno)
/opt/altera/13.0sp1/nios2eds/bin/gnu/H-i686-pc-linux-gnu/bin/../lib/gcc/nios2-elf/4.1.2/../../../../nios2-elf/lib/mno-hw-mul/libc.a(lib_a-isattyr.o)
                              /opt/altera/13.0sp1/nios2eds/bin/gnu/H-i686-pc-linux-gnu/bin/../lib/gcc/nios2-elf/4.1.2/../../../../nios2-elf/lib/mno-hw-mul/libc.a(lib_a-makebuf.o) (_isatty_r)
/opt/altera/13.0sp1/nios2eds/bin/gnu/H-i686-pc-linux-gnu/bin/../lib/gcc/nios2-elf/4.1.2/../../../../nios2-elf/lib/mno-hw-mul/libc.a(lib_a-lseekr.o)
                              /opt/altera/13.0sp1/nios2eds/bin/gnu/H-i686-pc-linux-gnu/bin/../lib/gcc/nios2-elf/4.1.2/../../../../nios2-elf/lib/mno-hw-mul/libc.a(lib_a-stdio.o) (_lseek_r)
/opt/altera/13.0sp1/nios2eds/bin/gnu/H-i686-pc-linux-gnu/bin/../lib/gcc/nios2-elf/4.1.2/../../../../nios2-elf/lib/mno-hw-mul/libc.a(lib_a-readr.o)
                              /opt/altera/13.0sp1/nios2eds/bin/gnu/H-i686-pc-linux-gnu/bin/../lib/gcc/nios2-elf/4.1.2/../../../../nios2-elf/lib/mno-hw-mul/libc.a(lib_a-stdio.o) (_read_r)
/opt/altera/13.0sp1/nios2eds/bin/gnu/H-i686-pc-linux-gnu/bin/../lib/gcc/nios2-elf/4.1.2/mno-hw-mul/libgcc.a(_udivdi3.o)
                              /opt/altera/13.0sp1/nios2eds/bin/gnu/H-i686-pc-linux-gnu/bin/../lib/gcc/nios2-elf/4.1.2/../../../../nios2-elf/lib/mno-hw-mul/libc.a(lib_a-vfprintf.o) (__udivdi3)
/opt/altera/13.0sp1/nios2eds/bin/gnu/H-i686-pc-linux-gnu/bin/../lib/gcc/nios2-elf/4.1.2/mno-hw-mul/libgcc.a(_umoddi3.o)
                              /opt/altera/13.0sp1/nios2eds/bin/gnu/H-i686-pc-linux-gnu/bin/../lib/gcc/nios2-elf/4.1.2/../../../../nios2-elf/lib/mno-hw-mul/libc.a(lib_a-vfprintf.o) (__umoddi3)
/opt/altera/13.0sp1/nios2eds/bin/gnu/H-i686-pc-linux-gnu/bin/../lib/gcc/nios2-elf/4.1.2/mno-hw-mul/libgcc.a(_addsub_df.o)
                              /opt/altera/13.0sp1/nios2eds/bin/gnu/H-i686-pc-linux-gnu/bin/../lib/gcc/nios2-elf/4.1.2/../../../../nios2-elf/lib/mno-hw-mul/libc.a(lib_a-dtoa.o) (__subdf3)
/opt/altera/13.0sp1/nios2eds/bin/gnu/H-i686-pc-linux-gnu/bin/../lib/gcc/nios2-elf/4.1.2/mno-hw-mul/libgcc.a(_mul_df.o)
                              /opt/altera/13.0sp1/nios2eds/bin/gnu/H-i686-pc-linux-gnu/bin/../lib/gcc/nios2-elf/4.1.2/../../../../nios2-elf/lib/mno-hw-mul/libc.a(lib_a-dtoa.o) (__muldf3)
/opt/altera/13.0sp1/nios2eds/bin/gnu/H-i686-pc-linux-gnu/bin/../lib/gcc/nios2-elf/4.1.2/mno-hw-mul/libgcc.a(_eq_df.o)
                              /opt/altera/13.0sp1/nios2eds/bin/gnu/H-i686-pc-linux-gnu/bin/../lib/gcc/nios2-elf/4.1.2/../../../../nios2-elf/lib/mno-hw-mul/libc.a(lib_a-vfprintf.o) (__eqdf2)
/opt/altera/13.0sp1/nios2eds/bin/gnu/H-i686-pc-linux-gnu/bin/../lib/gcc/nios2-elf/4.1.2/mno-hw-mul/libgcc.a(_ne_df.o)
                              /opt/altera/13.0sp1/nios2eds/bin/gnu/H-i686-pc-linux-gnu/bin/../lib/gcc/nios2-elf/4.1.2/../../../../nios2-elf/lib/mno-hw-mul/libc.a(lib_a-vfprintf.o) (__nedf2)
/opt/altera/13.0sp1/nios2eds/bin/gnu/H-i686-pc-linux-gnu/bin/../lib/gcc/nios2-elf/4.1.2/mno-hw-mul/libgcc.a(_gt_df.o)
                              /opt/altera/13.0sp1/nios2eds/bin/gnu/H-i686-pc-linux-gnu/bin/../lib/gcc/nios2-elf/4.1.2/../../../../nios2-elf/lib/mno-hw-mul/libc.a(lib_a-dtoa.o) (__gtdf2)
/opt/altera/13.0sp1/nios2eds/bin/gnu/H-i686-pc-linux-gnu/bin/../lib/gcc/nios2-elf/4.1.2/mno-hw-mul/libgcc.a(_ge_df.o)
                              /opt/altera/13.0sp1/nios2eds/bin/gnu/H-i686-pc-linux-gnu/bin/../lib/gcc/nios2-elf/4.1.2/../../../../nios2-elf/lib/mno-hw-mul/libc.a(lib_a-dtoa.o) (__gedf2)
/opt/altera/13.0sp1/nios2eds/bin/gnu/H-i686-pc-linux-gnu/bin/../lib/gcc/nios2-elf/4.1.2/mno-hw-mul/libgcc.a(_lt_df.o)
                              /opt/altera/13.0sp1/nios2eds/bin/gnu/H-i686-pc-linux-gnu/bin/../lib/gcc/nios2-elf/4.1.2/../../../../nios2-elf/lib/mno-hw-mul/libc.a(lib_a-vfprintf.o) (__ltdf2)
/opt/altera/13.0sp1/nios2eds/bin/gnu/H-i686-pc-linux-gnu/bin/../lib/gcc/nios2-elf/4.1.2/mno-hw-mul/libgcc.a(_si_to_df.o)
                              /opt/altera/13.0sp1/nios2eds/bin/gnu/H-i686-pc-linux-gnu/bin/../lib/gcc/nios2-elf/4.1.2/../../../../nios2-elf/lib/mno-hw-mul/libc.a(lib_a-dtoa.o) (__floatsidf)
/opt/altera/13.0sp1/nios2eds/bin/gnu/H-i686-pc-linux-gnu/bin/../lib/gcc/nios2-elf/4.1.2/mno-hw-mul/libgcc.a(_df_to_si.o)
                              /opt/altera/13.0sp1/nios2eds/bin/gnu/H-i686-pc-linux-gnu/bin/../lib/gcc/nios2-elf/4.1.2/../../../../nios2-elf/lib/mno-hw-mul/libc.a(lib_a-dtoa.o) (__fixdfsi)
/opt/altera/13.0sp1/nios2eds/bin/gnu/H-i686-pc-linux-gnu/bin/../lib/gcc/nios2-elf/4.1.2/mno-hw-mul/libgcc.a(_muldi3.o)
                              /opt/altera/13.0sp1/nios2eds/bin/gnu/H-i686-pc-linux-gnu/bin/../lib/gcc/nios2-elf/4.1.2/mno-hw-mul/libgcc.a(_mul_df.o) (__muldi3)
/opt/altera/13.0sp1/nios2eds/bin/gnu/H-i686-pc-linux-gnu/bin/../lib/gcc/nios2-elf/4.1.2/mno-hw-mul/libgcc.a(_fpcmp_parts_df.o)
                              /opt/altera/13.0sp1/nios2eds/bin/gnu/H-i686-pc-linux-gnu/bin/../lib/gcc/nios2-elf/4.1.2/mno-hw-mul/libgcc.a(_eq_df.o) (__fpcmp_parts_d)
../../bsp/mpsoc_hello_ucosii_q2//libucosii_bsp.a(alt_alarm_start.o)
                              obj/default/src/hello_ucosii.o (alt_alarm_start)
../../bsp/mpsoc_hello_ucosii_q2//libucosii_bsp.a(alt_close.o)
                              /opt/altera/13.0sp1/nios2eds/bin/gnu/H-i686-pc-linux-gnu/bin/../lib/gcc/nios2-elf/4.1.2/../../../../nios2-elf/lib/mno-hw-mul/libc.a(lib_a-closer.o) (close)
../../bsp/mpsoc_hello_ucosii_q2//libucosii_bsp.a(alt_dev.o)
                              ../../bsp/mpsoc_hello_ucosii_q2//libucosii_bsp.a(alt_close.o) (alt_fd_list)
../../bsp/mpsoc_hello_ucosii_q2//libucosii_bsp.a(alt_errno.o)
                              ../../bsp/mpsoc_hello_ucosii_q2//libucosii_bsp.a(alt_close.o) (alt_errno)
../../bsp/mpsoc_hello_ucosii_q2//libucosii_bsp.a(alt_fstat.o)
                              /opt/altera/13.0sp1/nios2eds/bin/gnu/H-i686-pc-linux-gnu/bin/../lib/gcc/nios2-elf/4.1.2/../../../../nios2-elf/lib/mno-hw-mul/libc.a(lib_a-fstatr.o) (fstat)
../../bsp/mpsoc_hello_ucosii_q2//libucosii_bsp.a(alt_isatty.o)
                              /opt/altera/13.0sp1/nios2eds/bin/gnu/H-i686-pc-linux-gnu/bin/../lib/gcc/nios2-elf/4.1.2/../../../../nios2-elf/lib/mno-hw-mul/libc.a(lib_a-isattyr.o) (isatty)
../../bsp/mpsoc_hello_ucosii_q2//libucosii_bsp.a(alt_load.o)
                              ../../bsp/mpsoc_hello_ucosii_q2//obj/HAL/src/crt0.o (alt_load)
../../bsp/mpsoc_hello_ucosii_q2//libucosii_bsp.a(alt_lseek.o)
                              /opt/altera/13.0sp1/nios2eds/bin/gnu/H-i686-pc-linux-gnu/bin/../lib/gcc/nios2-elf/4.1.2/../../../../nios2-elf/lib/mno-hw-mul/libc.a(lib_a-lseekr.o) (lseek)
../../bsp/mpsoc_hello_ucosii_q2//libucosii_bsp.a(alt_main.o)
                              ../../bsp/mpsoc_hello_ucosii_q2//obj/HAL/src/crt0.o (alt_main)
../../bsp/mpsoc_hello_ucosii_q2//libucosii_bsp.a(alt_read.o)
                              /opt/altera/13.0sp1/nios2eds/bin/gnu/H-i686-pc-linux-gnu/bin/../lib/gcc/nios2-elf/4.1.2/../../../../nios2-elf/lib/mno-hw-mul/libc.a(lib_a-readr.o) (read)
../../bsp/mpsoc_hello_ucosii_q2//libucosii_bsp.a(alt_release_fd.o)
                              ../../bsp/mpsoc_hello_ucosii_q2//libucosii_bsp.a(alt_close.o) (alt_release_fd)
../../bsp/mpsoc_hello_ucosii_q2//libucosii_bsp.a(alt_sbrk.o)
                              /opt/altera/13.0sp1/nios2eds/bin/gnu/H-i686-pc-linux-gnu/bin/../lib/gcc/nios2-elf/4.1.2/../../../../nios2-elf/lib/mno-hw-mul/libc.a(lib_a-sbrkr.o) (sbrk)
../../bsp/mpsoc_hello_ucosii_q2//libucosii_bsp.a(alt_tick.o)
                              ../../bsp/mpsoc_hello_ucosii_q2//libucosii_bsp.a(alt_alarm_start.o) (_alt_nticks)
../../bsp/mpsoc_hello_ucosii_q2//libucosii_bsp.a(alt_write.o)
                              /opt/altera/13.0sp1/nios2eds/bin/gnu/H-i686-pc-linux-gnu/bin/../lib/gcc/nios2-elf/4.1.2/../../../../nios2-elf/lib/mno-hw-mul/libc.a(lib_a-writer.o) (write)
../../bsp/mpsoc_hello_ucosii_q2//libucosii_bsp.a(alt_env_lock.o)
                              ../../bsp/mpsoc_hello_ucosii_q2//libucosii_bsp.a(alt_main.o) (alt_envsem)
../../bsp/mpsoc_hello_ucosii_q2//libucosii_bsp.a(alt_malloc_lock.o)
                              /opt/altera/13.0sp1/nios2eds/bin/gnu/H-i686-pc-linux-gnu/bin/../lib/gcc/nios2-elf/4.1.2/../../../../nios2-elf/lib/mno-hw-mul/libc.a(lib_a-freer.o) (__malloc_unlock)
../../bsp/mpsoc_hello_ucosii_q2//libucosii_bsp.a(os_core.o)
                              obj/default/src/hello_ucosii.o (OSVersion)
../../bsp/mpsoc_hello_ucosii_q2//libucosii_bsp.a(os_dbg.o)
                              ../../bsp/mpsoc_hello_ucosii_q2//libucosii_bsp.a(os_core.o) (OSDebugInit)
../../bsp/mpsoc_hello_ucosii_q2//libucosii_bsp.a(os_flag.o)
                              ../../bsp/mpsoc_hello_ucosii_q2//libucosii_bsp.a(os_core.o) (OS_FlagInit)
../../bsp/mpsoc_hello_ucosii_q2//libucosii_bsp.a(os_mem.o)
                              ../../bsp/mpsoc_hello_ucosii_q2//libucosii_bsp.a(os_core.o) (OS_MemInit)
../../bsp/mpsoc_hello_ucosii_q2//libucosii_bsp.a(os_q.o)
                              ../../bsp/mpsoc_hello_ucosii_q2//libucosii_bsp.a(os_core.o) (OS_QInit)
../../bsp/mpsoc_hello_ucosii_q2//libucosii_bsp.a(os_sem.o)
                              obj/default/src/hello_ucosii.o (OSSemCreate)
../../bsp/mpsoc_hello_ucosii_q2//libucosii_bsp.a(os_task.o)
                              ../../bsp/mpsoc_hello_ucosii_q2//libucosii_bsp.a(alt_env_lock.o) (OSTaskQuery)
../../bsp/mpsoc_hello_ucosii_q2//libucosii_bsp.a(os_time.o)
                              ../../bsp/mpsoc_hello_ucosii_q2//libucosii_bsp.a(os_core.o) (OSTimeDly)
../../bsp/mpsoc_hello_ucosii_q2//libucosii_bsp.a(os_tmr.o)
                              ../../bsp/mpsoc_hello_ucosii_q2//libucosii_bsp.a(os_core.o) (OSTmr_Init)
../../bsp/mpsoc_hello_ucosii_q2//libucosii_bsp.a(alt_sys_init.o)
                              ../../bsp/mpsoc_hello_ucosii_q2//libucosii_bsp.a(alt_main.o) (alt_sys_init)
../../bsp/mpsoc_hello_ucosii_q2//libucosii_bsp.a(altera_avalon_jtag_uart_fd.o)
                              ../../bsp/mpsoc_hello_ucosii_q2//libucosii_bsp.a(alt_sys_init.o) (altera_avalon_jtag_uart_ioctl_fd)
../../bsp/mpsoc_hello_ucosii_q2//libucosii_bsp.a(altera_avalon_jtag_uart_init.o)
                              ../../bsp/mpsoc_hello_ucosii_q2//libucosii_bsp.a(altera_avalon_jtag_uart_fd.o) (altera_avalon_jtag_uart_close)
../../bsp/mpsoc_hello_ucosii_q2//libucosii_bsp.a(altera_avalon_jtag_uart_ioctl.o)
                              ../../bsp/mpsoc_hello_ucosii_q2//libucosii_bsp.a(altera_avalon_jtag_uart_fd.o) (altera_avalon_jtag_uart_ioctl)
../../bsp/mpsoc_hello_ucosii_q2//libucosii_bsp.a(altera_avalon_jtag_uart_read.o)
                              ../../bsp/mpsoc_hello_ucosii_q2//libucosii_bsp.a(altera_avalon_jtag_uart_fd.o) (altera_avalon_jtag_uart_read)
../../bsp/mpsoc_hello_ucosii_q2//libucosii_bsp.a(altera_avalon_jtag_uart_write.o)
                              ../../bsp/mpsoc_hello_ucosii_q2//libucosii_bsp.a(altera_avalon_jtag_uart_fd.o) (altera_avalon_jtag_uart_write)
../../bsp/mpsoc_hello_ucosii_q2//libucosii_bsp.a(altera_avalon_mutex.o)
                              ../../bsp/mpsoc_hello_ucosii_q2//libucosii_bsp.a(alt_sys_init.o) (alt_mutex_list)
../../bsp/mpsoc_hello_ucosii_q2//libucosii_bsp.a(altera_avalon_timer_sc.o)
                              ../../bsp/mpsoc_hello_ucosii_q2//libucosii_bsp.a(alt_sys_init.o) (alt_avalon_timer_sc_init)
../../bsp/mpsoc_hello_ucosii_q2//libucosii_bsp.a(alt_dcache_flush_all.o)
                              ../../bsp/mpsoc_hello_ucosii_q2//libucosii_bsp.a(alt_load.o) (alt_dcache_flush_all)
../../bsp/mpsoc_hello_ucosii_q2//libucosii_bsp.a(alt_dev_llist_insert.o)
                              ../../bsp/mpsoc_hello_ucosii_q2//libucosii_bsp.a(alt_sys_init.o) (alt_dev_llist_insert)
../../bsp/mpsoc_hello_ucosii_q2//libucosii_bsp.a(alt_do_ctors.o)
                              ../../bsp/mpsoc_hello_ucosii_q2//libucosii_bsp.a(alt_main.o) (_do_ctors)
../../bsp/mpsoc_hello_ucosii_q2//libucosii_bsp.a(alt_do_dtors.o)
                              ../../bsp/mpsoc_hello_ucosii_q2//libucosii_bsp.a(alt_main.o) (_do_dtors)
../../bsp/mpsoc_hello_ucosii_q2//libucosii_bsp.a(alt_find_dev.o)
                              ../../bsp/mpsoc_hello_ucosii_q2//libucosii_bsp.a(altera_avalon_mutex.o) (alt_find_dev)
../../bsp/mpsoc_hello_ucosii_q2//libucosii_bsp.a(alt_icache_flush_all.o)
                              ../../bsp/mpsoc_hello_ucosii_q2//libucosii_bsp.a(alt_load.o) (alt_icache_flush_all)
../../bsp/mpsoc_hello_ucosii_q2//libucosii_bsp.a(alt_io_redirect.o)
                              ../../bsp/mpsoc_hello_ucosii_q2//libucosii_bsp.a(alt_main.o) (alt_io_redirect)
../../bsp/mpsoc_hello_ucosii_q2//libucosii_bsp.a(alt_irq_register.o)
                              ../../bsp/mpsoc_hello_ucosii_q2//libucosii_bsp.a(altera_avalon_jtag_uart_init.o) (alt_irq_register)
../../bsp/mpsoc_hello_ucosii_q2//libucosii_bsp.a(alt_irq_vars.o)
                              ../../bsp/mpsoc_hello_ucosii_q2//libucosii_bsp.a(alt_irq_register.o) (alt_irq_active)
../../bsp/mpsoc_hello_ucosii_q2//libucosii_bsp.a(alt_open.o)
                              ../../bsp/mpsoc_hello_ucosii_q2//libucosii_bsp.a(alt_io_redirect.o) (open)
../../bsp/mpsoc_hello_ucosii_q2//libucosii_bsp.a(altera_nios2_qsys_irq.o)
                              ../../bsp/mpsoc_hello_ucosii_q2//libucosii_bsp.a(alt_sys_init.o) (altera_nios2_qsys_irq_init)
../../bsp/mpsoc_hello_ucosii_q2//libucosii_bsp.a(os_cpu_a.o)
                              ../../bsp/mpsoc_hello_ucosii_q2//libucosii_bsp.a(os_core.o) (OSIntCtxSw)
../../bsp/mpsoc_hello_ucosii_q2//libucosii_bsp.a(os_cpu_c.o)
                              ../../bsp/mpsoc_hello_ucosii_q2//libucosii_bsp.a(os_core.o) (OSTaskCreateHook)
../../bsp/mpsoc_hello_ucosii_q2//libucosii_bsp.a(alt_find_file.o)
                              ../../bsp/mpsoc_hello_ucosii_q2//libucosii_bsp.a(alt_open.o) (alt_find_file)
../../bsp/mpsoc_hello_ucosii_q2//libucosii_bsp.a(alt_get_fd.o)
                              ../../bsp/mpsoc_hello_ucosii_q2//libucosii_bsp.a(alt_open.o) (alt_get_fd)
../../bsp/mpsoc_hello_ucosii_q2//libucosii_bsp.a(alt_irq_entry.o)
                              ../../bsp/mpsoc_hello_ucosii_q2//libucosii_bsp.a(alt_irq_register.o) (alt_irq_entry)
../../bsp/mpsoc_hello_ucosii_q2//libucosii_bsp.a(alt_irq_handler.o)
                              ../../bsp/mpsoc_hello_ucosii_q2//libucosii_bsp.a(alt_irq_register.o) (alt_irq_handler)
../../bsp/mpsoc_hello_ucosii_q2//libucosii_bsp.a(alt_exception_entry.o)
                              ../../bsp/mpsoc_hello_ucosii_q2//libucosii_bsp.a(alt_irq_entry.o) (alt_exception)
/opt/altera/13.0sp1/nios2eds/bin/gnu/H-i686-pc-linux-gnu/bin/../lib/gcc/nios2-elf/4.1.2/../../../../nios2-elf/lib/mno-hw-mul/libc.a(lib_a-atexit.o)
                              ../../bsp/mpsoc_hello_ucosii_q2//libucosii_bsp.a(alt_main.o) (atexit)
/opt/altera/13.0sp1/nios2eds/bin/gnu/H-i686-pc-linux-gnu/bin/../lib/gcc/nios2-elf/4.1.2/../../../../nios2-elf/lib/mno-hw-mul/libc.a(lib_a-exit.o)
                              ../../bsp/mpsoc_hello_ucosii_q2//libucosii_bsp.a(alt_main.o) (exit)
/opt/altera/13.0sp1/nios2eds/bin/gnu/H-i686-pc-linux-gnu/bin/../lib/gcc/nios2-elf/4.1.2/../../../../nios2-elf/lib/mno-hw-mul/libc.a(lib_a-memcmp.o)
                              ../../bsp/mpsoc_hello_ucosii_q2//libucosii_bsp.a(alt_find_dev.o) (memcmp)
/opt/altera/13.0sp1/nios2eds/bin/gnu/H-i686-pc-linux-gnu/bin/../lib/gcc/nios2-elf/4.1.2/../../../../nios2-elf/lib/mno-hw-mul/libc.a(lib_a-__atexit.o)
                              /opt/altera/13.0sp1/nios2eds/bin/gnu/H-i686-pc-linux-gnu/bin/../lib/gcc/nios2-elf/4.1.2/../../../../nios2-elf/lib/mno-hw-mul/libc.a(lib_a-atexit.o) (__register_exitproc)
/opt/altera/13.0sp1/nios2eds/bin/gnu/H-i686-pc-linux-gnu/bin/../lib/gcc/nios2-elf/4.1.2/../../../../nios2-elf/lib/mno-hw-mul/libc.a(lib_a-__call_atexit.o)
                              /opt/altera/13.0sp1/nios2eds/bin/gnu/H-i686-pc-linux-gnu/bin/../lib/gcc/nios2-elf/4.1.2/../../../../nios2-elf/lib/mno-hw-mul/libc.a(lib_a-exit.o) (__call_exitprocs)
/opt/altera/13.0sp1/nios2eds/bin/gnu/H-i686-pc-linux-gnu/bin/../lib/gcc/nios2-elf/4.1.2/mno-hw-mul/libgcc.a(_fixunsdfsi.o)
                              ../../bsp/mpsoc_hello_ucosii_q2//libucosii_bsp.a(os_time.o) (__fixunsdfsi)
../../bsp/mpsoc_hello_ucosii_q2//libucosii_bsp.a(alt_exit.o)
                              /opt/altera/13.0sp1/nios2eds/bin/gnu/H-i686-pc-linux-gnu/bin/../lib/gcc/nios2-elf/4.1.2/../../../../nios2-elf/lib/mno-hw-mul/libc.a(lib_a-exit.o) (_exit)

Allocating common symbols
Common symbol       size              file

OSTmrFreeList       0x4               ../../bsp/mpsoc_hello_ucosii_q2//libucosii_bsp.a(os_core.o)
alt_irq             0x100             ../../bsp/mpsoc_hello_ucosii_q2//libucosii_bsp.a(alt_irq_handler.o)
OSTmrWheelTbl       0x10              ../../bsp/mpsoc_hello_ucosii_q2//libucosii_bsp.a(os_core.o)
task1_stk           0x2000            obj/default/src/hello_ucosii.o
OSLockNesting       0x1               ../../bsp/mpsoc_hello_ucosii_q2//libucosii_bsp.a(os_core.o)
OSTmrSemSignal      0x4               ../../bsp/mpsoc_hello_ucosii_q2//libucosii_bsp.a(os_core.o)
OSRunning           0x1               ../../bsp/mpsoc_hello_ucosii_q2//libucosii_bsp.a(os_core.o)
QMsgTbl             0x3c              obj/default/src/hello_ucosii.o
Task1Semaphore      0x4               obj/default/src/hello_ucosii.o
OSIdleCtr           0x4               ../../bsp/mpsoc_hello_ucosii_q2//libucosii_bsp.a(os_core.o)
OSTmrUsed           0x2               ../../bsp/mpsoc_hello_ucosii_q2//libucosii_bsp.a(os_core.o)
Task1Tmr            0x4               obj/default/src/hello_ucosii.o
OSPrioHighRdy       0x1               ../../bsp/mpsoc_hello_ucosii_q2//libucosii_bsp.a(os_core.o)
errno               0x4               /opt/altera/13.0sp1/nios2eds/bin/gnu/H-i686-pc-linux-gnu/bin/../lib/gcc/nios2-elf/4.1.2/../../../../nios2-elf/lib/mno-hw-mul/libc.a(lib_a-int_errno.o)
alt_heapsem         0x4               ../../bsp/mpsoc_hello_ucosii_q2//libucosii_bsp.a(alt_malloc_lock.o)
OSFlagTbl           0x370             ../../bsp/mpsoc_hello_ucosii_q2//libucosii_bsp.a(os_core.o)
OSTmrTbl            0x340             ../../bsp/mpsoc_hello_ucosii_q2//libucosii_bsp.a(os_core.o)
Task2Semaphore      0x4               obj/default/src/hello_ucosii.o
OSPrioCur           0x1               ../../bsp/mpsoc_hello_ucosii_q2//libucosii_bsp.a(os_core.o)
OSTCBList           0x4               ../../bsp/mpsoc_hello_ucosii_q2//libucosii_bsp.a(os_core.o)
alt_fd_list_lock    0x4               ../../bsp/mpsoc_hello_ucosii_q2//libucosii_bsp.a(alt_dev.o)
OSMemTbl            0xc30             ../../bsp/mpsoc_hello_ucosii_q2//libucosii_bsp.a(os_core.o)
OSTickStepState     0x1               ../../bsp/mpsoc_hello_ucosii_q2//libucosii_bsp.a(os_core.o)
OSTaskStatStk       0x800             ../../bsp/mpsoc_hello_ucosii_q2//libucosii_bsp.a(os_core.o)
OSCtxSwCtr          0x4               ../../bsp/mpsoc_hello_ucosii_q2//libucosii_bsp.a(os_core.o)
OSTmrFree           0x2               ../../bsp/mpsoc_hello_ucosii_q2//libucosii_bsp.a(os_core.o)
OSIdleCtrMax        0x4               ../../bsp/mpsoc_hello_ucosii_q2//libucosii_bsp.a(os_core.o)
OSTCBFreeList       0x4               ../../bsp/mpsoc_hello_ucosii_q2//libucosii_bsp.a(os_core.o)
g_shared            0x4               obj/default/src/imageProcessing.o
OSCPUUsage          0x1               ../../bsp/mpsoc_hello_ucosii_q2//libucosii_bsp.a(os_core.o)
QSem                0x4               obj/default/src/hello_ucosii.o
OSTaskCtr           0x1               ../../bsp/mpsoc_hello_ucosii_q2//libucosii_bsp.a(os_core.o)
OSMemFreeList       0x4               ../../bsp/mpsoc_hello_ucosii_q2//libucosii_bsp.a(os_core.o)
Task3Semaphore      0x4               obj/default/src/hello_ucosii.o
OSQTbl              0x1e0             ../../bsp/mpsoc_hello_ucosii_q2//libucosii_bsp.a(os_core.o)
OSTCBHighRdy        0x4               ../../bsp/mpsoc_hello_ucosii_q2//libucosii_bsp.a(os_core.o)
OSQFreeList         0x4               ../../bsp/mpsoc_hello_ucosii_q2//libucosii_bsp.a(os_core.o)
OSRdyGrp            0x1               ../../bsp/mpsoc_hello_ucosii_q2//libucosii_bsp.a(os_core.o)
Task2Tmr            0x4               obj/default/src/hello_ucosii.o
task2_stk           0x2000            obj/default/src/hello_ucosii.o
_atexit0            0x190             /opt/altera/13.0sp1/nios2eds/bin/gnu/H-i686-pc-linux-gnu/bin/../lib/gcc/nios2-elf/4.1.2/../../../../nios2-elf/lib/mno-hw-mul/libc.a(lib_a-atexit.o)
task3_stk           0x2000            obj/default/src/hello_ucosii.o
StartTask_Stack     0x2000            obj/default/src/hello_ucosii.o
OSRdyTbl            0x3               ../../bsp/mpsoc_hello_ucosii_q2//libucosii_bsp.a(os_core.o)
delay               0x4               obj/default/src/hello_ucosii.o
OSTmrTaskStk        0x800             ../../bsp/mpsoc_hello_ucosii_q2//libucosii_bsp.a(os_core.o)
OSEventFreeList     0x4               ../../bsp/mpsoc_hello_ucosii_q2//libucosii_bsp.a(os_core.o)
OSIntNesting        0x1               ../../bsp/mpsoc_hello_ucosii_q2//libucosii_bsp.a(os_core.o)
OSTCBCur            0x4               ../../bsp/mpsoc_hello_ucosii_q2//libucosii_bsp.a(os_core.o)
OSTmrTime           0x4               ../../bsp/mpsoc_hello_ucosii_q2//libucosii_bsp.a(os_core.o)
OSTime              0x4               ../../bsp/mpsoc_hello_ucosii_q2//libucosii_bsp.a(os_core.o)
OSTmrSem            0x4               ../../bsp/mpsoc_hello_ucosii_q2//libucosii_bsp.a(os_core.o)
OSTaskIdleStk       0x800             ../../bsp/mpsoc_hello_ucosii_q2//libucosii_bsp.a(os_core.o)
OSEventTbl          0xb40             ../../bsp/mpsoc_hello_ucosii_q2//libucosii_bsp.a(os_core.o)
OSTCBTbl            0x510             ../../bsp/mpsoc_hello_ucosii_q2//libucosii_bsp.a(os_core.o)
OSFlagFreeList      0x4               ../../bsp/mpsoc_hello_ucosii_q2//libucosii_bsp.a(os_core.o)
OSStatRdy           0x1               ../../bsp/mpsoc_hello_ucosii_q2//libucosii_bsp.a(os_core.o)
OSTCBPrioTbl        0x54              ../../bsp/mpsoc_hello_ucosii_q2//libucosii_bsp.a(os_core.o)
alt_envsem          0x4               ../../bsp/mpsoc_hello_ucosii_q2//libucosii_bsp.a(alt_env_lock.o)
OSIdleCtrRun        0x4               ../../bsp/mpsoc_hello_ucosii_q2//libucosii_bsp.a(os_core.o)

Memory Configuration

Name             Origin             Length             Attributes
reset            0x00080000         0x00000020
sram             0x00080020         0x0007ffe0
shared_onchip    0x00102000         0x00002000
sdram            0x01000000         0x00800000
*default*        0x00000000         0xffffffff

Linker script and memory map

LOAD ../../bsp/mpsoc_hello_ucosii_q2//obj/HAL/src/crt0.o
LOAD obj/default/src/hello_ucosii.o
LOAD obj/default/src/imageProcessing.o
LOAD /opt/altera/13.0sp1/nios2eds/bin/gnu/H-i686-pc-linux-gnu/bin/../lib/gcc/nios2-elf/4.1.2/../../../../nios2-elf/lib/mno-hw-mul/libstdc++.a
LOAD /opt/altera/13.0sp1/nios2eds/bin/gnu/H-i686-pc-linux-gnu/bin/../lib/gcc/nios2-elf/4.1.2/../../../../nios2-elf/lib/mno-hw-mul/libm.a
LOAD /opt/altera/13.0sp1/nios2eds/bin/gnu/H-i686-pc-linux-gnu/bin/../lib/gcc/nios2-elf/4.1.2/mno-hw-mul/libgcc.a
START GROUP
LOAD /opt/altera/13.0sp1/nios2eds/bin/gnu/H-i686-pc-linux-gnu/bin/../lib/gcc/nios2-elf/4.1.2/../../../../nios2-elf/lib/mno-hw-mul/libc.a
LOAD /opt/altera/13.0sp1/nios2eds/bin/gnu/H-i686-pc-linux-gnu/bin/../lib/gcc/nios2-elf/4.1.2/mno-hw-mul/libgcc.a
LOAD ../../bsp/mpsoc_hello_ucosii_q2//libucosii_bsp.a
END GROUP
LOAD /opt/altera/13.0sp1/nios2eds/bin/gnu/H-i686-pc-linux-gnu/bin/../lib/gcc/nios2-elf/4.1.2/mno-hw-mul/libgcc.a
                0x00080000                __alt_mem_sram = 0x80000
                0x00102000                __alt_mem_shared_onchip = 0x102000
                0x01000000                __alt_mem_sdram = 0x1000000

.entry          0x00080000       0x20
 *(.entry)
 .entry         0x00080000       0x20 ../../bsp/mpsoc_hello_ucosii_q2//obj/HAL/src/crt0.o
                0x00080000                __reset

.exceptions     0x00080020      0x12c
                0x00080020                PROVIDE (__ram_exceptions_start, ABSOLUTE (.))
                0x00080020                . = ALIGN (0x20)
 *(.irq)
 *(.exceptions.entry.label)
 .exceptions.entry.label
                0x00080020        0x0 ../../bsp/mpsoc_hello_ucosii_q2//libucosii_bsp.a(alt_irq_entry.o)
                0x00080020                alt_irq_entry
 .exceptions.entry.label
                0x00080020        0x0 ../../bsp/mpsoc_hello_ucosii_q2//libucosii_bsp.a(alt_exception_entry.o)
                0x00080020                alt_exception
 *(.exceptions.entry.user)
 *(.exceptions.entry)
 .exceptions.entry
                0x00080020       0x54 ../../bsp/mpsoc_hello_ucosii_q2//libucosii_bsp.a(alt_exception_entry.o)
 *(.exceptions.irqtest.user)
 *(.exceptions.irqtest)
 .exceptions.irqtest
                0x00080074       0x10 ../../bsp/mpsoc_hello_ucosii_q2//libucosii_bsp.a(alt_irq_entry.o)
 *(.exceptions.irqhandler.user)
 *(.exceptions.irqhandler)
 .exceptions.irqhandler
                0x00080084        0x4 ../../bsp/mpsoc_hello_ucosii_q2//libucosii_bsp.a(alt_irq_entry.o)
 *(.exceptions.irqreturn.user)
 *(.exceptions.irqreturn)
 .exceptions.irqreturn
                0x00080088        0x4 ../../bsp/mpsoc_hello_ucosii_q2//libucosii_bsp.a(alt_irq_entry.o)
 *(.exceptions.notirq.label)
 .exceptions.notirq.label
                0x0008008c        0x0 ../../bsp/mpsoc_hello_ucosii_q2//libucosii_bsp.a(alt_irq_entry.o)
 *(.exceptions.notirq.user)
 *(.exceptions.notirq)
 .exceptions.notirq
                0x0008008c        0x8 ../../bsp/mpsoc_hello_ucosii_q2//libucosii_bsp.a(alt_exception_entry.o)
 *(.exceptions.soft.user)
 *(.exceptions.soft)
 *(.exceptions.unknown.user)
 *(.exceptions.unknown)
 .exceptions.unknown
                0x00080094        0x4 ../../bsp/mpsoc_hello_ucosii_q2//libucosii_bsp.a(alt_exception_entry.o)
 *(.exceptions.exit.label)
 .exceptions.exit.label
                0x00080098        0x0 ../../bsp/mpsoc_hello_ucosii_q2//libucosii_bsp.a(alt_irq_entry.o)
 .exceptions.exit.label
                0x00080098        0x0 ../../bsp/mpsoc_hello_ucosii_q2//libucosii_bsp.a(alt_exception_entry.o)
 *(.exceptions.exit.user)
 *(.exceptions.exit)
 .exceptions.exit
                0x00080098       0x54 ../../bsp/mpsoc_hello_ucosii_q2//libucosii_bsp.a(alt_exception_entry.o)
 *(.exceptions)
 .exceptions    0x000800ec       0x60 ../../bsp/mpsoc_hello_ucosii_q2//libucosii_bsp.a(alt_irq_handler.o)
                0x000800ec                alt_irq_handler
                0x0008014c                PROVIDE (__ram_exceptions_end, ABSOLUTE (.))
                0x00080020                PROVIDE (__flash_exceptions_start, LOADADDR (.exceptions))

.text           0x0008014c    0x11614
                0x0008014c                PROVIDE (stext, ABSOLUTE (.))
 *(.interp)
 *(.hash)
 *(.dynsym)
 *(.dynstr)
 *(.gnu.version)
 *(.gnu.version_d)
 *(.gnu.version_r)
 *(.rel.init)
 *(.rela.init)
 *(.rel.text .rel.text.* .rel.gnu.linkonce.t.*)
 *(.rela.text .rela.text.* .rela.gnu.linkonce.t.*)
 *(.rel.fini)
 *(.rela.fini)
 *(.rel.rodata .rel.rodata.* .rel.gnu.linkonce.r.*)
 *(.rela.rodata .rela.rodata.* .rela.gnu.linkonce.r.*)
 *(.rel.data .rel.data.* .rel.gnu.linkonce.d.*)
 *(.rela.data .rela.data.* .rela.gnu.linkonce.d.*)
 *(.rel.tdata .rel.tdata.* .rel.gnu.linkonce.td.*)
 *(.rela.tdata .rela.tdata.* .rela.gnu.linkonce.td.*)
 *(.rel.tbss .rel.tbss.* .rel.gnu.linkonce.tb.*)
 *(.rela.tbss .rela.tbss.* .rela.gnu.linkonce.tb.*)
 *(.rel.ctors)
 *(.rela.ctors)
 *(.rel.dtors)
 *(.rela.dtors)
 *(.rel.got)
 *(.rela.got)
 *(.rel.sdata .rel.sdata.* .rel.gnu.linkonce.s.*)
 *(.rela.sdata .rela.sdata.* .rela.gnu.linkonce.s.*)
 *(.rel.sbss .rel.sbss.* .rel.gnu.linkonce.sb.*)
 *(.rela.sbss .rela.sbss.* .rela.gnu.linkonce.sb.*)
 *(.rel.sdata2 .rel.sdata2.* .rel.gnu.linkonce.s2.*)
 *(.rela.sdata2 .rela.sdata2.* .rela.gnu.linkonce.s2.*)
 *(.rel.sbss2 .rel.sbss2.* .rel.gnu.linkonce.sb2.*)
 *(.rela.sbss2 .rela.sbss2.* .rela.gnu.linkonce.sb2.*)
 *(.rel.bss .rel.bss.* .rel.gnu.linkonce.b.*)
 *(.rela.bss .rela.bss.* .rela.gnu.linkonce.b.*)
 *(.rel.plt)
 *(.rela.plt)
 *(.rel.dyn)
 *(.init)
 *(.plt)
 *(.text .stub .text.* .gnu.linkonce.t.*)
 .text          0x0008014c       0x3c ../../bsp/mpsoc_hello_ucosii_q2//obj/HAL/src/crt0.o
                0x0008014c                _start
 .text          0x00080188      0x690 obj/default/src/hello_ucosii.o
                0x00080188                main
                0x0008023c                StartTask
                0x00080450                task2
                0x000804e4                Task2TmrCallback
                0x00080508                Task1TmrCallback
                0x0008052c                task1
                0x000805bc                alarm_handler
                0x000805d8                printAsciiHidden
                0x000806e8                printAscii
                0x000807a4                task3
 .text          0x00080818      0x22c obj/default/src/imageProcessing.o
                0x00080818                graySDF
                0x00080964                sram2sm_p32
 .text          0x00080a44      0x258 /opt/altera/13.0sp1/nios2eds/bin/gnu/H-i686-pc-linux-gnu/bin/../lib/gcc/nios2-elf/4.1.2/mno-hw-mul/libgcc.a(_div_df.o)
                0x00080a44                __divdf3
 .text          0x00080c9c        0x0 /opt/altera/13.0sp1/nios2eds/bin/gnu/H-i686-pc-linux-gnu/bin/../lib/gcc/nios2-elf/4.1.2/mno-hw-mul/libgcc.a(_thenan_df.o)
 .text          0x00080c9c      0x194 /opt/altera/13.0sp1/nios2eds/bin/gnu/H-i686-pc-linux-gnu/bin/../lib/gcc/nios2-elf/4.1.2/mno-hw-mul/libgcc.a(_usi_to_df.o)
                0x00080c9c                __floatunsidf
 .text          0x00080e30      0x14c /opt/altera/13.0sp1/nios2eds/bin/gnu/H-i686-pc-linux-gnu/bin/../lib/gcc/nios2-elf/4.1.2/mno-hw-mul/libgcc.a(lib2-divmod.o)
                0x00080eac                __divsi3
                0x00080f0c                __modsi3
                0x00080f6c                __udivsi3
                0x00080f74                __umodsi3
 .text          0x00080f7c       0x38 /opt/altera/13.0sp1/nios2eds/bin/gnu/H-i686-pc-linux-gnu/bin/../lib/gcc/nios2-elf/4.1.2/mno-hw-mul/libgcc.a(lib2-mul.o)
                0x00080f7c                __mulsi3
 .text          0x00080fb4       0x80 /opt/altera/13.0sp1/nios2eds/bin/gnu/H-i686-pc-linux-gnu/bin/../lib/gcc/nios2-elf/4.1.2/mno-hw-mul/libgcc.a(_clzsi2.o)
                0x00080fb4                __clzsi2
 .text          0x00081034      0x314 /opt/altera/13.0sp1/nios2eds/bin/gnu/H-i686-pc-linux-gnu/bin/../lib/gcc/nios2-elf/4.1.2/mno-hw-mul/libgcc.a(_pack_df.o)
                0x00081034                __pack_d
 .text          0x00081348      0x138 /opt/altera/13.0sp1/nios2eds/bin/gnu/H-i686-pc-linux-gnu/bin/../lib/gcc/nios2-elf/4.1.2/mno-hw-mul/libgcc.a(_unpack_df.o)
                0x00081348                __unpack_d
 .text          0x00081480        0x0 /opt/altera/13.0sp1/nios2eds/bin/gnu/H-i686-pc-linux-gnu/bin/../lib/gcc/nios2-elf/4.1.2/mno-hw-mul/libgcc.a(_clz.o)
 .text          0x00081480       0x78 /opt/altera/13.0sp1/nios2eds/bin/gnu/H-i686-pc-linux-gnu/bin/../lib/gcc/nios2-elf/4.1.2/../../../../nios2-elf/lib/mno-hw-mul/libc.a(lib_a-printf.o)
                0x00081480                printf
                0x000814c4                _printf_r
 .text          0x000814f8       0x24 /opt/altera/13.0sp1/nios2eds/bin/gnu/H-i686-pc-linux-gnu/bin/../lib/gcc/nios2-elf/4.1.2/../../../../nios2-elf/lib/mno-hw-mul/libc.a(lib_a-putchar.o)
                0x000814f8                putchar
                0x00081514                _putchar_r
 .text          0x0008151c       0xb4 /opt/altera/13.0sp1/nios2eds/bin/gnu/H-i686-pc-linux-gnu/bin/../lib/gcc/nios2-elf/4.1.2/../../../../nios2-elf/lib/mno-hw-mul/libc.a(lib_a-puts.o)
                0x0008151c                _puts_r
                0x000815bc                puts
 .text          0x000815d0       0x74 /opt/altera/13.0sp1/nios2eds/bin/gnu/H-i686-pc-linux-gnu/bin/../lib/gcc/nios2-elf/4.1.2/../../../../nios2-elf/lib/mno-hw-mul/libc.a(lib_a-strlen.o)
                0x000815d0                strlen
 .text          0x00081644     0x1f40 /opt/altera/13.0sp1/nios2eds/bin/gnu/H-i686-pc-linux-gnu/bin/../lib/gcc/nios2-elf/4.1.2/../../../../nios2-elf/lib/mno-hw-mul/libc.a(lib_a-vfprintf.o)
                0x0008169c                ___vfprintf_internal_r
                0x00083560                __vfprintf_internal
 .text          0x00083584      0x13c /opt/altera/13.0sp1/nios2eds/bin/gnu/H-i686-pc-linux-gnu/bin/../lib/gcc/nios2-elf/4.1.2/../../../../nios2-elf/lib/mno-hw-mul/libc.a(lib_a-wsetup.o)
                0x00083584                __swsetup_r
 .text          0x000836c0     0x17f8 /opt/altera/13.0sp1/nios2eds/bin/gnu/H-i686-pc-linux-gnu/bin/../lib/gcc/nios2-elf/4.1.2/../../../../nios2-elf/lib/mno-hw-mul/libc.a(lib_a-dtoa.o)
                0x00083904                _dtoa_r
 .text          0x00084eb8      0x230 /opt/altera/13.0sp1/nios2eds/bin/gnu/H-i686-pc-linux-gnu/bin/../lib/gcc/nios2-elf/4.1.2/../../../../nios2-elf/lib/mno-hw-mul/libc.a(lib_a-fflush.o)
                0x00084eb8                _fflush_r
                0x000850b4                fflush
 .text          0x000850e8      0x2f4 /opt/altera/13.0sp1/nios2eds/bin/gnu/H-i686-pc-linux-gnu/bin/../lib/gcc/nios2-elf/4.1.2/../../../../nios2-elf/lib/mno-hw-mul/libc.a(lib_a-findfp.o)
                0x00085140                __sfp_lock_acquire
                0x00085144                __sfp_lock_release
                0x00085148                __sinit_lock_acquire
                0x0008514c                __sinit_lock_release
                0x00085150                __sinit
                0x00085204                __fp_unlock_all
                0x0008521c                __fp_lock_all
                0x00085234                _cleanup_r
                0x00085240                _cleanup
                0x00085250                __sfmoreglue
                0x000852ec                __sfp
 .text          0x000853dc      0x440 /opt/altera/13.0sp1/nios2eds/bin/gnu/H-i686-pc-linux-gnu/bin/../lib/gcc/nios2-elf/4.1.2/../../../../nios2-elf/lib/mno-hw-mul/libc.a(lib_a-freer.o)
                0x000853dc                _malloc_trim_r
                0x00085508                _free_r
 .text          0x0008581c      0x49c /opt/altera/13.0sp1/nios2eds/bin/gnu/H-i686-pc-linux-gnu/bin/../lib/gcc/nios2-elf/4.1.2/../../../../nios2-elf/lib/mno-hw-mul/libc.a(lib_a-fvwrite.o)
                0x0008581c                __sfvwrite_r
 .text          0x00085cb8      0x180 /opt/altera/13.0sp1/nios2eds/bin/gnu/H-i686-pc-linux-gnu/bin/../lib/gcc/nios2-elf/4.1.2/../../../../nios2-elf/lib/mno-hw-mul/libc.a(lib_a-fwalk.o)
                0x00085cb8                _fwalk_reent
                0x00085d80                _fwalk
 .text          0x00085e38        0x0 /opt/altera/13.0sp1/nios2eds/bin/gnu/H-i686-pc-linux-gnu/bin/../lib/gcc/nios2-elf/4.1.2/../../../../nios2-elf/lib/mno-hw-mul/libc.a(lib_a-impure.o)
 .text          0x00085e38       0xc4 /opt/altera/13.0sp1/nios2eds/bin/gnu/H-i686-pc-linux-gnu/bin/../lib/gcc/nios2-elf/4.1.2/../../../../nios2-elf/lib/mno-hw-mul/libc.a(lib_a-locale.o)
                0x00085e38                __locale_charset
                0x00085e40                _localeconv_r
                0x00085e4c                localeconv
                0x00085e5c                _setlocale_r
                0x00085ee0                setlocale
 .text          0x00085efc      0x194 /opt/altera/13.0sp1/nios2eds/bin/gnu/H-i686-pc-linux-gnu/bin/../lib/gcc/nios2-elf/4.1.2/../../../../nios2-elf/lib/mno-hw-mul/libc.a(lib_a-makebuf.o)
                0x00085efc                __smakebuf_r
 .text          0x00086090      0x740 /opt/altera/13.0sp1/nios2eds/bin/gnu/H-i686-pc-linux-gnu/bin/../lib/gcc/nios2-elf/4.1.2/../../../../nios2-elf/lib/mno-hw-mul/libc.a(lib_a-mallocr.o)
                0x00086090                _malloc_r
 .text          0x000867d0       0xe4 /opt/altera/13.0sp1/nios2eds/bin/gnu/H-i686-pc-linux-gnu/bin/../lib/gcc/nios2-elf/4.1.2/../../../../nios2-elf/lib/mno-hw-mul/libc.a(lib_a-memchr.o)
                0x000867d0                memchr
 .text          0x000868b4       0xa0 /opt/altera/13.0sp1/nios2eds/bin/gnu/H-i686-pc-linux-gnu/bin/../lib/gcc/nios2-elf/4.1.2/../../../../nios2-elf/lib/mno-hw-mul/libc.a(lib_a-memcpy.o)
                0x000868b4                memcpy
 .text          0x00086954       0xe0 /opt/altera/13.0sp1/nios2eds/bin/gnu/H-i686-pc-linux-gnu/bin/../lib/gcc/nios2-elf/4.1.2/../../../../nios2-elf/lib/mno-hw-mul/libc.a(lib_a-memmove.o)
                0x00086954                memmove
 .text          0x00086a34       0x98 /opt/altera/13.0sp1/nios2eds/bin/gnu/H-i686-pc-linux-gnu/bin/../lib/gcc/nios2-elf/4.1.2/../../../../nios2-elf/lib/mno-hw-mul/libc.a(lib_a-memset.o)
                0x00086a34                memset
 .text          0x00086acc     0x108c /opt/altera/13.0sp1/nios2eds/bin/gnu/H-i686-pc-linux-gnu/bin/../lib/gcc/nios2-elf/4.1.2/../../../../nios2-elf/lib/mno-hw-mul/libc.a(lib_a-mprec.o)
                0x00086acc                _Bfree
                0x00086af4                __hi0bits
                0x00086b64                __lo0bits
                0x00086c28                __mcmp
                0x00086c88                __ulp
                0x00086d08                __b2d
                0x00086e28                __ratio
                0x00086ed8                _mprec_log10
                0x00086f6c                __copybits
                0x00086fc4                __any_on
                0x0008704c                _Balloc
                0x00087108                __d2b
                0x00087284                __mdiff
                0x00087410                __lshift
                0x0008755c                __multiply
                0x000877b0                __i2b
                0x000877ec                __multadd
                0x00087918                __pow5mult
                0x00087a38                __s2b
 .text          0x00087b58      0x1ec /opt/altera/13.0sp1/nios2eds/bin/gnu/H-i686-pc-linux-gnu/bin/../lib/gcc/nios2-elf/4.1.2/../../../../nios2-elf/lib/mno-hw-mul/libc.a(lib_a-putc.o)
                0x00087b58                putc
                0x00087c5c                _putc_r
 .text          0x00087d44      0x5f4 /opt/altera/13.0sp1/nios2eds/bin/gnu/H-i686-pc-linux-gnu/bin/../lib/gcc/nios2-elf/4.1.2/../../../../nios2-elf/lib/mno-hw-mul/libc.a(lib_a-reallocr.o)
                0x00087d44                _realloc_r
 .text          0x00088338       0x40 /opt/altera/13.0sp1/nios2eds/bin/gnu/H-i686-pc-linux-gnu/bin/../lib/gcc/nios2-elf/4.1.2/../../../../nios2-elf/lib/mno-hw-mul/libc.a(lib_a-s_isinfd.o)
                0x00088338                __isinfd
 .text          0x00088378       0x30 /opt/altera/13.0sp1/nios2eds/bin/gnu/H-i686-pc-linux-gnu/bin/../lib/gcc/nios2-elf/4.1.2/../../../../nios2-elf/lib/mno-hw-mul/libc.a(lib_a-s_isnand.o)
                0x00088378                __isnand
 .text          0x000883a8       0x70 /opt/altera/13.0sp1/nios2eds/bin/gnu/H-i686-pc-linux-gnu/bin/../lib/gcc/nios2-elf/4.1.2/../../../../nios2-elf/lib/mno-hw-mul/libc.a(lib_a-sbrkr.o)
                0x000883a8                _sbrk_r
 .text          0x00088418      0x14c /opt/altera/13.0sp1/nios2eds/bin/gnu/H-i686-pc-linux-gnu/bin/../lib/gcc/nios2-elf/4.1.2/../../../../nios2-elf/lib/mno-hw-mul/libc.a(lib_a-stdio.o)
                0x00088418                __sclose
                0x00088420                __sseek
                0x00088488                __swrite
                0x00088504                __sread
 .text          0x00088564       0xbc /opt/altera/13.0sp1/nios2eds/bin/gnu/H-i686-pc-linux-gnu/bin/../lib/gcc/nios2-elf/4.1.2/../../../../nios2-elf/lib/mno-hw-mul/libc.a(lib_a-strcmp.o)
                0x00088564                strcmp
 .text          0x00088620      0x14c /opt/altera/13.0sp1/nios2eds/bin/gnu/H-i686-pc-linux-gnu/bin/../lib/gcc/nios2-elf/4.1.2/../../../../nios2-elf/lib/mno-hw-mul/libc.a(lib_a-wbuf.o)
                0x00088620                __swbuf_r
                0x00088750                __swbuf
 .text          0x0008876c       0x78 /opt/altera/13.0sp1/nios2eds/bin/gnu/H-i686-pc-linux-gnu/bin/../lib/gcc/nios2-elf/4.1.2/../../../../nios2-elf/lib/mno-hw-mul/libc.a(lib_a-writer.o)
                0x0008876c                _write_r
 .text          0x000887e4       0xc8 /opt/altera/13.0sp1/nios2eds/bin/gnu/H-i686-pc-linux-gnu/bin/../lib/gcc/nios2-elf/4.1.2/../../../../nios2-elf/lib/mno-hw-mul/libc.a(lib_a-callocr.o)
                0x000887e4                _calloc_r
 .text          0x000888ac       0x70 /opt/altera/13.0sp1/nios2eds/bin/gnu/H-i686-pc-linux-gnu/bin/../lib/gcc/nios2-elf/4.1.2/../../../../nios2-elf/lib/mno-hw-mul/libc.a(lib_a-closer.o)
                0x000888ac                _close_r
 .text          0x0008891c      0x124 /opt/altera/13.0sp1/nios2eds/bin/gnu/H-i686-pc-linux-gnu/bin/../lib/gcc/nios2-elf/4.1.2/../../../../nios2-elf/lib/mno-hw-mul/libc.a(lib_a-fclose.o)
                0x0008891c                _fclose_r
                0x00088a2c                fclose
 .text          0x00088a40       0x74 /opt/altera/13.0sp1/nios2eds/bin/gnu/H-i686-pc-linux-gnu/bin/../lib/gcc/nios2-elf/4.1.2/../../../../nios2-elf/lib/mno-hw-mul/libc.a(lib_a-fstatr.o)
                0x00088a40                _fstat_r
 .text          0x00088ab4        0x0 /opt/altera/13.0sp1/nios2eds/bin/gnu/H-i686-pc-linux-gnu/bin/../lib/gcc/nios2-elf/4.1.2/../../../../nios2-elf/lib/mno-hw-mul/libc.a(lib_a-int_errno.o)
 .text          0x00088ab4       0x70 /opt/altera/13.0sp1/nios2eds/bin/gnu/H-i686-pc-linux-gnu/bin/../lib/gcc/nios2-elf/4.1.2/../../../../nios2-elf/lib/mno-hw-mul/libc.a(lib_a-isattyr.o)
                0x00088ab4                _isatty_r
 .text          0x00088b24       0x78 /opt/altera/13.0sp1/nios2eds/bin/gnu/H-i686-pc-linux-gnu/bin/../lib/gcc/nios2-elf/4.1.2/../../../../nios2-elf/lib/mno-hw-mul/libc.a(lib_a-lseekr.o)
                0x00088b24                _lseek_r
 .text          0x00088b9c       0x78 /opt/altera/13.0sp1/nios2eds/bin/gnu/H-i686-pc-linux-gnu/bin/../lib/gcc/nios2-elf/4.1.2/../../../../nios2-elf/lib/mno-hw-mul/libc.a(lib_a-readr.o)
                0x00088b9c                _read_r
 .text          0x00088c14      0x66c /opt/altera/13.0sp1/nios2eds/bin/gnu/H-i686-pc-linux-gnu/bin/../lib/gcc/nios2-elf/4.1.2/mno-hw-mul/libgcc.a(_udivdi3.o)
                0x00088c14                __udivdi3
 .text          0x00089280      0x660 /opt/altera/13.0sp1/nios2eds/bin/gnu/H-i686-pc-linux-gnu/bin/../lib/gcc/nios2-elf/4.1.2/mno-hw-mul/libgcc.a(_umoddi3.o)
                0x00089280                __umoddi3
 .text          0x000898e0      0x504 /opt/altera/13.0sp1/nios2eds/bin/gnu/H-i686-pc-linux-gnu/bin/../lib/gcc/nios2-elf/4.1.2/mno-hw-mul/libgcc.a(_addsub_df.o)
                0x00089cf0                __subdf3
                0x00089d70                __adddf3
 .text          0x00089de4      0x3c4 /opt/altera/13.0sp1/nios2eds/bin/gnu/H-i686-pc-linux-gnu/bin/../lib/gcc/nios2-elf/4.1.2/mno-hw-mul/libgcc.a(_mul_df.o)
                0x00089de4                __muldf3
 .text          0x0008a1a8       0x88 /opt/altera/13.0sp1/nios2eds/bin/gnu/H-i686-pc-linux-gnu/bin/../lib/gcc/nios2-elf/4.1.2/mno-hw-mul/libgcc.a(_eq_df.o)
                0x0008a1a8                __eqdf2
 .text          0x0008a230       0x88 /opt/altera/13.0sp1/nios2eds/bin/gnu/H-i686-pc-linux-gnu/bin/../lib/gcc/nios2-elf/4.1.2/mno-hw-mul/libgcc.a(_ne_df.o)
                0x0008a230                __nedf2
 .text          0x0008a2b8       0x88 /opt/altera/13.0sp1/nios2eds/bin/gnu/H-i686-pc-linux-gnu/bin/../lib/gcc/nios2-elf/4.1.2/mno-hw-mul/libgcc.a(_gt_df.o)
                0x0008a2b8                __gtdf2
 .text          0x0008a340       0x88 /opt/altera/13.0sp1/nios2eds/bin/gnu/H-i686-pc-linux-gnu/bin/../lib/gcc/nios2-elf/4.1.2/mno-hw-mul/libgcc.a(_ge_df.o)
                0x0008a340                __gedf2
 .text          0x0008a3c8       0x88 /opt/altera/13.0sp1/nios2eds/bin/gnu/H-i686-pc-linux-gnu/bin/../lib/gcc/nios2-elf/4.1.2/mno-hw-mul/libgcc.a(_lt_df.o)
                0x0008a3c8                __ltdf2
 .text          0x0008a450       0xf8 /opt/altera/13.0sp1/nios2eds/bin/gnu/H-i686-pc-linux-gnu/bin/../lib/gcc/nios2-elf/4.1.2/mno-hw-mul/libgcc.a(_si_to_df.o)
                0x0008a450                __floatsidf
 .text          0x0008a548       0xd8 /opt/altera/13.0sp1/nios2eds/bin/gnu/H-i686-pc-linux-gnu/bin/../lib/gcc/nios2-elf/4.1.2/mno-hw-mul/libgcc.a(_df_to_si.o)
                0x0008a548                __fixdfsi
 .text          0x0008a620      0x124 /opt/altera/13.0sp1/nios2eds/bin/gnu/H-i686-pc-linux-gnu/bin/../lib/gcc/nios2-elf/4.1.2/mno-hw-mul/libgcc.a(_muldi3.o)
                0x0008a620                __muldi3
 .text          0x0008a744       0xc8 /opt/altera/13.0sp1/nios2eds/bin/gnu/H-i686-pc-linux-gnu/bin/../lib/gcc/nios2-elf/4.1.2/mno-hw-mul/libgcc.a(_fpcmp_parts_df.o)
                0x0008a744                __fpcmp_parts_d
 .text          0x0008a80c       0x90 ../../bsp/mpsoc_hello_ucosii_q2//libucosii_bsp.a(alt_alarm_start.o)
                0x0008a80c                alt_alarm_start
 .text          0x0008a89c       0xbc ../../bsp/mpsoc_hello_ucosii_q2//libucosii_bsp.a(alt_close.o)
                0x0008a8bc                close
 .text          0x0008a958        0x8 ../../bsp/mpsoc_hello_ucosii_q2//libucosii_bsp.a(alt_dev.o)
 .text          0x0008a960        0x0 ../../bsp/mpsoc_hello_ucosii_q2//libucosii_bsp.a(alt_errno.o)
 .text          0x0008a960       0x9c ../../bsp/mpsoc_hello_ucosii_q2//libucosii_bsp.a(alt_fstat.o)
                0x0008a960                fstat
 .text          0x0008a9fc       0x94 ../../bsp/mpsoc_hello_ucosii_q2//libucosii_bsp.a(alt_isatty.o)
                0x0008a9fc                isatty
 .text          0x0008aa90       0x8c ../../bsp/mpsoc_hello_ucosii_q2//libucosii_bsp.a(alt_load.o)
                0x0008aab0                alt_load
 .text          0x0008ab1c       0xb8 ../../bsp/mpsoc_hello_ucosii_q2//libucosii_bsp.a(alt_lseek.o)
                0x0008ab1c                lseek
 .text          0x0008abd4       0xa8 ../../bsp/mpsoc_hello_ucosii_q2//libucosii_bsp.a(alt_main.o)
                0x0008abd4                alt_main
 .text          0x0008ac7c       0xd8 ../../bsp/mpsoc_hello_ucosii_q2//libucosii_bsp.a(alt_read.o)
                0x0008ac9c                read
 .text          0x0008ad54       0x5c ../../bsp/mpsoc_hello_ucosii_q2//libucosii_bsp.a(alt_release_fd.o)
                0x0008ad54                alt_release_fd
 .text          0x0008adb0       0x50 ../../bsp/mpsoc_hello_ucosii_q2//libucosii_bsp.a(alt_sbrk.o)
                0x0008adb0                sbrk
 .text          0x0008ae00       0xe0 ../../bsp/mpsoc_hello_ucosii_q2//libucosii_bsp.a(alt_tick.o)
                0x0008ae00                alt_alarm_stop
                0x0008ae34                alt_tick
 .text          0x0008aee0       0xd4 ../../bsp/mpsoc_hello_ucosii_q2//libucosii_bsp.a(alt_write.o)
                0x0008af00                write
 .text          0x0008afb4       0xa8 ../../bsp/mpsoc_hello_ucosii_q2//libucosii_bsp.a(alt_env_lock.o)
                0x0008afb4                __env_unlock
                0x0008afdc                __env_lock
 .text          0x0008b05c      0x110 ../../bsp/mpsoc_hello_ucosii_q2//libucosii_bsp.a(alt_malloc_lock.o)
                0x0008b05c                __malloc_unlock
                0x0008b0b8                __malloc_lock
 .text          0x0008b16c     0x1118 ../../bsp/mpsoc_hello_ucosii_q2//libucosii_bsp.a(os_core.o)
                0x0008b16c                OSVersion
                0x0008b174                OS_Dummy
                0x0008b178                OS_EventTaskWait
                0x0008b1fc                OS_EventTaskWaitMulti
                0x0008b29c                OS_EventTaskRemove
                0x0008b2e8                OS_EventTaskRemoveMulti
                0x0008b344                OS_EventTaskRdy
                0x0008b438                OS_EventWaitListInit
                0x0008b454                OS_MemClr
                0x0008b470                OS_MemCopy
                0x0008b494                OS_StrCopy
                0x0008b4c0                OS_StrLen
                0x0008b4e0                OS_TaskStatStkChk
                0x0008b564                OS_Sched
                0x0008b61c                OSStart
                0x0008b688                OSInit
                0x0008b868                OSEventNameGet
                0x0008b920                OSEventPendMulti
                0x0008bc78                OSIntEnter
                0x0008bcb4                OSSchedLock
                0x0008bcf8                OSSchedUnlock
                0x0008bd4c                OSStatInit
                0x0008bdb0                OSTimeTick
                0x0008bebc                OS_TaskIdle
                0x0008beec                OS_TaskStat
                0x0008bf70                OS_TCBInit
                0x0008c0f4                OSIntExit
                0x0008c1c8                OSEventNameSet
 .text          0x0008c284        0x4 ../../bsp/mpsoc_hello_ucosii_q2//libucosii_bsp.a(os_dbg.o)
                0x0008c284                OSDebugInit
 .text          0x0008c288      0xc5c ../../bsp/mpsoc_hello_ucosii_q2//libucosii_bsp.a(os_flag.o)
                0x0008c340                OS_FlagUnlink
                0x0008c40c                OS_FlagInit
                0x0008c47c                OSFlagQuery
                0x0008c4d8                OSFlagAccept
                0x0008c648                OSFlagCreate
                0x0008c6d0                OSFlagDel
                0x0008c830                OSFlagNameGet
                0x0008c8f0                OSFlagNameSet
                0x0008c9c4                OSFlagPend
                0x0008ccc4                OSFlagPendGetFlagsRdy
                0x0008ccf0                OSFlagPost
 .text          0x0008cee4      0x3b8 ../../bsp/mpsoc_hello_ucosii_q2//libucosii_bsp.a(os_mem.o)
                0x0008cee4                OS_MemInit
                0x0008cf4c                OSMemQuery
                0x0008cfb0                OSMemCreate
                0x0008d080                OSMemGet
                0x0008d0ec                OSMemNameGet
                0x0008d188                OSMemNameSet
                0x0008d244                OSMemPut
 .text          0x0008d29c      0x9c4 ../../bsp/mpsoc_hello_ucosii_q2//libucosii_bsp.a(os_q.o)
                0x0008d29c                OS_QInit
                0x0008d2ec                OSQQuery
                0x0008d384                OSQAccept
                0x0008d420                OSQCreate
                0x0008d520                OSQDel
                0x0008d6a4                OSQFlush
                0x0008d6f4                OSQPend
                0x0008d8b4                OSQPendAbort
                0x0008d99c                OSQPost
                0x0008da58                OSQPostFront
                0x0008db1c                OSQPostOpt
 .text          0x0008dc60      0x5e0 ../../bsp/mpsoc_hello_ucosii_q2//libucosii_bsp.a(os_sem.o)
                0x0008dc60                OSSemSet
                0x0008dcc4                OSSemAccept
                0x0008dd08                OSSemCreate
                0x0008dd94                OSSemDel
                0x0008dee8                OSSemPend
                0x0008e050                OSSemPendAbort
                0x0008e13c                OSSemPost
                0x0008e1d8                OSSemQuery
 .text          0x0008e240      0xe74 ../../bsp/mpsoc_hello_ucosii_q2//libucosii_bsp.a(os_task.o)
                0x0008e240                OS_TaskStkClr
                0x0008e270                OSTaskQuery
                0x0008e338                OSTaskChangePrio
                0x0008e5d4                OSTaskCreate
                0x0008e6e0                OSTaskCreateExt
                0x0008e858                OSTaskDel
                0x0008eaa4                OSTaskDelReq
                0x0008eb58                OSTaskNameGet
                0x0008ec60                OSTaskNameSet
                0x0008ed7c                OSTaskResume
                0x0008ee80                OSTaskStkChk
                0x0008ef70                OSTaskSuspend
 .text          0x0008f0b4      0x378 ../../bsp/mpsoc_hello_ucosii_q2//libucosii_bsp.a(os_time.o)
                0x0008f0b4                OSTimeSet
                0x0008f0d8                OSTimeDly
                0x0008f170                OSTimeDlyHMSM
                0x0008f310                OSTimeDlyResume
                0x0008f408                OSTimeGet
 .text          0x0008f42c      0xb94 ../../bsp/mpsoc_hello_ucosii_q2//libucosii_bsp.a(os_tmr.o)
                0x0008f598                OSTmr_Init
                0x0008f7f4                OSTmrStop
                0x0008f950                OSTmrStart
                0x0008fa54                OSTmrStateGet
                0x0008fafc                OSTmrRemainGet
                0x0008fc14                OSTmrDel
                0x0008fd10                OSTmrSignal
                0x0008fd38                OSTmrNameGet
                0x0008fe24                OSTmrCreate
 .text          0x0008ffc0      0x168 ../../bsp/mpsoc_hello_ucosii_q2//libucosii_bsp.a(alt_sys_init.o)
                0x00090048                alt_sys_init
                0x00090108                alt_irq_init
 .text          0x00090128       0x3c ../../bsp/mpsoc_hello_ucosii_q2//libucosii_bsp.a(altera_avalon_jtag_uart_fd.o)
                0x00090128                altera_avalon_jtag_uart_ioctl_fd
                0x00090134                altera_avalon_jtag_uart_close_fd
                0x00090144                altera_avalon_jtag_uart_write_fd
                0x00090154                altera_avalon_jtag_uart_read_fd
 .text          0x00090164      0x2e0 ../../bsp/mpsoc_hello_ucosii_q2//libucosii_bsp.a(altera_avalon_jtag_uart_init.o)
                0x00090164                altera_avalon_jtag_uart_close
                0x00090224                altera_avalon_jtag_uart_init
 .text          0x00090444       0x7c ../../bsp/mpsoc_hello_ucosii_q2//libucosii_bsp.a(altera_avalon_jtag_uart_ioctl.o)
                0x00090444                altera_avalon_jtag_uart_ioctl
 .text          0x000904c0      0x1ac ../../bsp/mpsoc_hello_ucosii_q2//libucosii_bsp.a(altera_avalon_jtag_uart_read.o)
                0x000904c0                altera_avalon_jtag_uart_read
 .text          0x0009066c      0x1b8 ../../bsp/mpsoc_hello_ucosii_q2//libucosii_bsp.a(altera_avalon_jtag_uart_write.o)
                0x0009066c                altera_avalon_jtag_uart_write
 .text          0x00090824      0x188 ../../bsp/mpsoc_hello_ucosii_q2//libucosii_bsp.a(altera_avalon_mutex.o)
                0x00090824                altera_avalon_mutex_close
                0x00090828                altera_avalon_mutex_first_lock
                0x00090838                altera_avalon_mutex_is_mine
                0x00090888                altera_avalon_mutex_unlock
                0x000908ac                altera_avalon_mutex_trylock
                0x00090908                altera_avalon_mutex_open
                0x00090960                altera_avalon_mutex_lock
 .text          0x000909ac       0x6c ../../bsp/mpsoc_hello_ucosii_q2//libucosii_bsp.a(altera_avalon_timer_sc.o)
                0x000909ac                alt_avalon_timer_sc_init
 .text          0x00090a18        0x4 ../../bsp/mpsoc_hello_ucosii_q2//libucosii_bsp.a(alt_dcache_flush_all.o)
                0x00090a18                alt_dcache_flush_all
 .text          0x00090a1c       0x70 ../../bsp/mpsoc_hello_ucosii_q2//libucosii_bsp.a(alt_dev_llist_insert.o)
                0x00090a1c                alt_dev_llist_insert
 .text          0x00090a8c       0x40 ../../bsp/mpsoc_hello_ucosii_q2//libucosii_bsp.a(alt_do_ctors.o)
                0x00090a8c                _do_ctors
 .text          0x00090acc       0x40 ../../bsp/mpsoc_hello_ucosii_q2//libucosii_bsp.a(alt_do_dtors.o)
                0x00090acc                _do_dtors
 .text          0x00090b0c       0x70 ../../bsp/mpsoc_hello_ucosii_q2//libucosii_bsp.a(alt_find_dev.o)
                0x00090b0c                alt_find_dev
 .text          0x00090b7c        0x4 ../../bsp/mpsoc_hello_ucosii_q2//libucosii_bsp.a(alt_icache_flush_all.o)
                0x00090b7c                alt_icache_flush_all
 .text          0x00090b80      0x114 ../../bsp/mpsoc_hello_ucosii_q2//libucosii_bsp.a(alt_io_redirect.o)
                0x00090c08                alt_io_redirect
 .text          0x00090c94       0xa0 ../../bsp/mpsoc_hello_ucosii_q2//libucosii_bsp.a(alt_irq_register.o)
                0x00090c94                alt_irq_register
 .text          0x00090d34        0x0 ../../bsp/mpsoc_hello_ucosii_q2//libucosii_bsp.a(alt_irq_vars.o)
 .text          0x00090d34      0x17c ../../bsp/mpsoc_hello_ucosii_q2//libucosii_bsp.a(alt_open.o)
                0x00090d34                open
 .text          0x00090eb0        0x8 ../../bsp/mpsoc_hello_ucosii_q2//libucosii_bsp.a(altera_nios2_qsys_irq.o)
                0x00090eb0                altera_nios2_qsys_irq_init
 .text          0x00090eb8       0xd0 ../../bsp/mpsoc_hello_ucosii_q2//libucosii_bsp.a(os_cpu_a.o)
                0x00090eb8                OSCtxSw
                0x00090eb8                OSIntCtxSw
                0x00090f44                OSStartHighRdy
                0x00090f64                OSStartTsk
 .text          0x00090f88      0x228 ../../bsp/mpsoc_hello_ucosii_q2//libucosii_bsp.a(os_cpu_c.o)
                0x00090f88                OSTaskCreateHook
                0x00090f8c                OSTaskDelHook
                0x00090f90                OSTaskSwHook
                0x00090f94                OSTaskStatHook
                0x00090f98                OSInitHookBegin
                0x00090fa0                OSInitHookEnd
                0x00090fa4                OSTaskIdleHook
                0x00090fa8                OSTCBInitHook
                0x00090fac                OSTimeTickHook
                0x00091004                OSTaskStkInit
 .text          0x000911b0       0x9c ../../bsp/mpsoc_hello_ucosii_q2//libucosii_bsp.a(alt_find_file.o)
                0x000911b0                alt_find_file
 .text          0x0009124c       0xa4 ../../bsp/mpsoc_hello_ucosii_q2//libucosii_bsp.a(alt_get_fd.o)
                0x0009124c                alt_get_fd
 .text          0x000912f0        0x0 ../../bsp/mpsoc_hello_ucosii_q2//libucosii_bsp.a(alt_irq_entry.o)
 .text          0x000912f0        0x0 ../../bsp/mpsoc_hello_ucosii_q2//libucosii_bsp.a(alt_irq_handler.o)
 .text          0x000912f0        0x0 ../../bsp/mpsoc_hello_ucosii_q2//libucosii_bsp.a(alt_exception_entry.o)
 .text          0x000912f0       0x14 /opt/altera/13.0sp1/nios2eds/bin/gnu/H-i686-pc-linux-gnu/bin/../lib/gcc/nios2-elf/4.1.2/../../../../nios2-elf/lib/mno-hw-mul/libc.a(lib_a-atexit.o)
                0x000912f0                atexit
 .text          0x00091304       0x38 /opt/altera/13.0sp1/nios2eds/bin/gnu/H-i686-pc-linux-gnu/bin/../lib/gcc/nios2-elf/4.1.2/../../../../nios2-elf/lib/mno-hw-mul/libc.a(lib_a-exit.o)
                0x00091304                exit
 .text          0x0009133c       0x74 /opt/altera/13.0sp1/nios2eds/bin/gnu/H-i686-pc-linux-gnu/bin/../lib/gcc/nios2-elf/4.1.2/../../../../nios2-elf/lib/mno-hw-mul/libc.a(lib_a-memcmp.o)
                0x0009133c                memcmp
 .text          0x000913b0      0x134 /opt/altera/13.0sp1/nios2eds/bin/gnu/H-i686-pc-linux-gnu/bin/../lib/gcc/nios2-elf/4.1.2/../../../../nios2-elf/lib/mno-hw-mul/libc.a(lib_a-__atexit.o)
                0x000913b0                __register_exitproc
 .text          0x000914e4      0x1b4 /opt/altera/13.0sp1/nios2eds/bin/gnu/H-i686-pc-linux-gnu/bin/../lib/gcc/nios2-elf/4.1.2/../../../../nios2-elf/lib/mno-hw-mul/libc.a(lib_a-__call_atexit.o)
                0x000914e8                __call_exitprocs
 .text          0x00091698       0xa4 /opt/altera/13.0sp1/nios2eds/bin/gnu/H-i686-pc-linux-gnu/bin/../lib/gcc/nios2-elf/4.1.2/mno-hw-mul/libgcc.a(_fixunsdfsi.o)
                0x00091698                __fixunsdfsi
 .text          0x0009173c       0x20 ../../bsp/mpsoc_hello_ucosii_q2//libucosii_bsp.a(alt_exit.o)
                0x0009173c                _exit
 *(.gnu.warning.*)
 *(.fini)
                0x0009175c                PROVIDE (__etext, ABSOLUTE (.))
                0x0009175c                PROVIDE (_etext, ABSOLUTE (.))
                0x0009175c                PROVIDE (etext, ABSOLUTE (.))
 *(.eh_frame_hdr)
                0x0009175c                . = ALIGN (0x4)
                0x0009175c                PROVIDE (__preinit_array_start, ABSOLUTE (.))
 *(.preinit_array)
                0x0009175c                PROVIDE (__preinit_array_end, ABSOLUTE (.))
                0x0009175c                PROVIDE (__init_array_start, ABSOLUTE (.))
 *(.init_array)
                0x0009175c                PROVIDE (__init_array_end, ABSOLUTE (.))
                0x0009175c                PROVIDE (__fini_array_start, ABSOLUTE (.))
 *(.fini_array)
                0x0009175c                PROVIDE (__fini_array_end, ABSOLUTE (.))
 *(.eh_frame)
 *(.gcc_except_table)
 *(.dynamic)
                0x0009175c                PROVIDE (__CTOR_LIST__, ABSOLUTE (.))
 *(.ctors)
 *(SORT(.ctors.*))
 .ctors.65535   0x0009175c        0x4 /opt/altera/13.0sp1/nios2eds/bin/gnu/H-i686-pc-linux-gnu/bin/../lib/gcc/nios2-elf/4.1.2/../../../../nios2-elf/lib/mno-hw-mul/libc.a(lib_a-__call_atexit.o)
                0x00091760                PROVIDE (__CTOR_END__, ABSOLUTE (.))
                0x00091760                PROVIDE (__DTOR_LIST__, ABSOLUTE (.))
 *(.dtors)
 *(SORT(.dtors.*))
                0x00091760                PROVIDE (__DTOR_END__, ABSOLUTE (.))
 *(.jcr)
                0x00091760                . = ALIGN (0x4)

.rodata         0x00091760      0x780
                0x00091760                PROVIDE (__ram_rodata_start, ABSOLUTE (.))
                0x00091760                . = ALIGN (0x4)
 *(.rodata .rodata.* .gnu.linkonce.r.*)
 .rodata.str1.4
                0x00091760      0x1f7 obj/default/src/hello_ucosii.o
                                0x1f8 (size before relaxing)
 *fill*         0x00091957        0x1 00
 .rodata.str1.4
                0x00091958       0x82 obj/default/src/imageProcessing.o
                                 0x84 (size before relaxing)
 *fill*         0x000919da        0x2 00
 .rodata        0x000919dc       0x14 /opt/altera/13.0sp1/nios2eds/bin/gnu/H-i686-pc-linux-gnu/bin/../lib/gcc/nios2-elf/4.1.2/mno-hw-mul/libgcc.a(_thenan_df.o)
                0x000919dc                __thenan_df
 .rodata        0x000919f0      0x100 /opt/altera/13.0sp1/nios2eds/bin/gnu/H-i686-pc-linux-gnu/bin/../lib/gcc/nios2-elf/4.1.2/mno-hw-mul/libgcc.a(_clz.o)
                0x000919f0                __clz_tab
 .rodata.str1.4
                0x00000000       0x82 /opt/altera/13.0sp1/nios2eds/bin/gnu/H-i686-pc-linux-gnu/bin/../lib/gcc/nios2-elf/4.1.2/../../../../nios2-elf/lib/mno-hw-mul/libc.a(lib_a-puts.o)
                                  0x4 (size before relaxing)
 .rodata.str1.4
                0x00091af0       0x5e /opt/altera/13.0sp1/nios2eds/bin/gnu/H-i686-pc-linux-gnu/bin/../lib/gcc/nios2-elf/4.1.2/../../../../nios2-elf/lib/mno-hw-mul/libc.a(lib_a-vfprintf.o)
                                 0x60 (size before relaxing)
 .rodata        0x00091b4e       0x20 /opt/altera/13.0sp1/nios2eds/bin/gnu/H-i686-pc-linux-gnu/bin/../lib/gcc/nios2-elf/4.1.2/../../../../nios2-elf/lib/mno-hw-mul/libc.a(lib_a-vfprintf.o)
 *fill*         0x00091b6e        0x2 00
 .rodata.str1.4
                0x00091b70       0x10 /opt/altera/13.0sp1/nios2eds/bin/gnu/H-i686-pc-linux-gnu/bin/../lib/gcc/nios2-elf/4.1.2/../../../../nios2-elf/lib/mno-hw-mul/libc.a(lib_a-dtoa.o)
                                 0x14 (size before relaxing)
 .rodata.str1.4
                0x00091b80        0x2 /opt/altera/13.0sp1/nios2eds/bin/gnu/H-i686-pc-linux-gnu/bin/../lib/gcc/nios2-elf/4.1.2/../../../../nios2-elf/lib/mno-hw-mul/libc.a(lib_a-impure.o)
                                  0x4 (size before relaxing)
 *fill*         0x00091b82        0x2 00
 .rodata.str1.4
                0x00091b84        0xf /opt/altera/13.0sp1/nios2eds/bin/gnu/H-i686-pc-linux-gnu/bin/../lib/gcc/nios2-elf/4.1.2/../../../../nios2-elf/lib/mno-hw-mul/libc.a(lib_a-locale.o)
                                 0x18 (size before relaxing)
 *fill*         0x00091b93        0x1 00
 .rodata        0x00091b94       0x30 /opt/altera/13.0sp1/nios2eds/bin/gnu/H-i686-pc-linux-gnu/bin/../lib/gcc/nios2-elf/4.1.2/../../../../nios2-elf/lib/mno-hw-mul/libc.a(lib_a-locale.o)
 .rodata        0x00091bc4      0x124 /opt/altera/13.0sp1/nios2eds/bin/gnu/H-i686-pc-linux-gnu/bin/../lib/gcc/nios2-elf/4.1.2/../../../../nios2-elf/lib/mno-hw-mul/libc.a(lib_a-mprec.o)
                0x00091bc4                __mprec_tens
                0x00091c8c                __mprec_bigtens
                0x00091cb4                __mprec_tinytens
 .rodata.str1.4
                0x00091ce8        0xa ../../bsp/mpsoc_hello_ucosii_q2//libucosii_bsp.a(alt_dev.o)
                                  0xc (size before relaxing)
 *fill*         0x00091cf2        0x2 00
 .rodata.str1.4
                0x00091cf4       0x11 ../../bsp/mpsoc_hello_ucosii_q2//libucosii_bsp.a(alt_main.o)
                                 0x14 (size before relaxing)
 *fill*         0x00091d05        0x3 00
 .rodata.str1.4
                0x00091d08       0x1e ../../bsp/mpsoc_hello_ucosii_q2//libucosii_bsp.a(os_core.o)
                                 0x20 (size before relaxing)
 .rodata        0x00091d26      0x100 ../../bsp/mpsoc_hello_ucosii_q2//libucosii_bsp.a(os_core.o)
                0x00091d26                OSUnMapTbl
 *fill*         0x00091e26        0x2 00
 .rodata.str1.4
                0x00091e28       0x35 ../../bsp/mpsoc_hello_ucosii_q2//libucosii_bsp.a(os_tmr.o)
                                 0x38 (size before relaxing)
 *fill*         0x00091e5d        0x3 00
 .rodata.str1.4
                0x00091e60       0x80 ../../bsp/mpsoc_hello_ucosii_q2//libucosii_bsp.a(alt_sys_init.o)
                                 0x94 (size before relaxing)
 .rodata.str1.4
                0x00000000        0x4 ../../bsp/mpsoc_hello_ucosii_q2//libucosii_bsp.a(os_cpu_c.o)
 *(.rodata1)
                0x00091ee0                . = ALIGN (0x4)
                0x00091ee0                PROVIDE (__ram_rodata_end, ABSOLUTE (.))
                0x00091760                PROVIDE (__flash_rodata_start, LOADADDR (.rodata))

.rwdata         0x00091ee0     0xe808 load address 0x000a06e8
                0x00091ee0                PROVIDE (__ram_rwdata_start, ABSOLUTE (.))
                0x00091ee0                . = ALIGN (0x4)
 *(.got.plt)
 *(.got)
 *(.data1)
 *(.data .data.* .gnu.linkonce.d.*)
 .data          0x00091ee0        0x0 ../../bsp/mpsoc_hello_ucosii_q2//obj/HAL/src/crt0.o
 .data          0x00091ee0     0xcc30 obj/default/src/hello_ucosii.o
                0x00091ee0                test_ppm_5
                0x00092ae3                test_ppm_1
                0x00095ae6                test_ppm_2
                0x00098ae9                test_ppm_3
                0x0009baec                test_ppm_4
                0x0009eaf0                image_sequence
                0x0009eb00                asciiChars
 .data          0x0009eb10        0x0 obj/default/src/imageProcessing.o
 .data          0x0009eb10        0x0 /opt/altera/13.0sp1/nios2eds/bin/gnu/H-i686-pc-linux-gnu/bin/../lib/gcc/nios2-elf/4.1.2/mno-hw-mul/libgcc.a(_div_df.o)
 .data          0x0009eb10        0x0 /opt/altera/13.0sp1/nios2eds/bin/gnu/H-i686-pc-linux-gnu/bin/../lib/gcc/nios2-elf/4.1.2/mno-hw-mul/libgcc.a(_thenan_df.o)
 .data          0x0009eb10        0x0 /opt/altera/13.0sp1/nios2eds/bin/gnu/H-i686-pc-linux-gnu/bin/../lib/gcc/nios2-elf/4.1.2/mno-hw-mul/libgcc.a(_usi_to_df.o)
 .data          0x0009eb10        0x0 /opt/altera/13.0sp1/nios2eds/bin/gnu/H-i686-pc-linux-gnu/bin/../lib/gcc/nios2-elf/4.1.2/mno-hw-mul/libgcc.a(lib2-divmod.o)
 .data          0x0009eb10        0x0 /opt/altera/13.0sp1/nios2eds/bin/gnu/H-i686-pc-linux-gnu/bin/../lib/gcc/nios2-elf/4.1.2/mno-hw-mul/libgcc.a(lib2-mul.o)
 .data          0x0009eb10        0x0 /opt/altera/13.0sp1/nios2eds/bin/gnu/H-i686-pc-linux-gnu/bin/../lib/gcc/nios2-elf/4.1.2/mno-hw-mul/libgcc.a(_clzsi2.o)
 .data          0x0009eb10        0x0 /opt/altera/13.0sp1/nios2eds/bin/gnu/H-i686-pc-linux-gnu/bin/../lib/gcc/nios2-elf/4.1.2/mno-hw-mul/libgcc.a(_pack_df.o)
 .data          0x0009eb10        0x0 /opt/altera/13.0sp1/nios2eds/bin/gnu/H-i686-pc-linux-gnu/bin/../lib/gcc/nios2-elf/4.1.2/mno-hw-mul/libgcc.a(_unpack_df.o)
 .data          0x0009eb10        0x0 /opt/altera/13.0sp1/nios2eds/bin/gnu/H-i686-pc-linux-gnu/bin/../lib/gcc/nios2-elf/4.1.2/mno-hw-mul/libgcc.a(_clz.o)
 .data          0x0009eb10        0x0 /opt/altera/13.0sp1/nios2eds/bin/gnu/H-i686-pc-linux-gnu/bin/../lib/gcc/nios2-elf/4.1.2/../../../../nios2-elf/lib/mno-hw-mul/libc.a(lib_a-printf.o)
 .data          0x0009eb10        0x0 /opt/altera/13.0sp1/nios2eds/bin/gnu/H-i686-pc-linux-gnu/bin/../lib/gcc/nios2-elf/4.1.2/../../../../nios2-elf/lib/mno-hw-mul/libc.a(lib_a-putchar.o)
 .data          0x0009eb10        0x0 /opt/altera/13.0sp1/nios2eds/bin/gnu/H-i686-pc-linux-gnu/bin/../lib/gcc/nios2-elf/4.1.2/../../../../nios2-elf/lib/mno-hw-mul/libc.a(lib_a-puts.o)
 .data          0x0009eb10        0x0 /opt/altera/13.0sp1/nios2eds/bin/gnu/H-i686-pc-linux-gnu/bin/../lib/gcc/nios2-elf/4.1.2/../../../../nios2-elf/lib/mno-hw-mul/libc.a(lib_a-strlen.o)
 .data          0x0009eb10        0x0 /opt/altera/13.0sp1/nios2eds/bin/gnu/H-i686-pc-linux-gnu/bin/../lib/gcc/nios2-elf/4.1.2/../../../../nios2-elf/lib/mno-hw-mul/libc.a(lib_a-vfprintf.o)
 .data          0x0009eb10        0x0 /opt/altera/13.0sp1/nios2eds/bin/gnu/H-i686-pc-linux-gnu/bin/../lib/gcc/nios2-elf/4.1.2/../../../../nios2-elf/lib/mno-hw-mul/libc.a(lib_a-wsetup.o)
 .data          0x0009eb10        0x0 /opt/altera/13.0sp1/nios2eds/bin/gnu/H-i686-pc-linux-gnu/bin/../lib/gcc/nios2-elf/4.1.2/../../../../nios2-elf/lib/mno-hw-mul/libc.a(lib_a-dtoa.o)
 .data          0x0009eb10        0x0 /opt/altera/13.0sp1/nios2eds/bin/gnu/H-i686-pc-linux-gnu/bin/../lib/gcc/nios2-elf/4.1.2/../../../../nios2-elf/lib/mno-hw-mul/libc.a(lib_a-fflush.o)
 .data          0x0009eb10        0x0 /opt/altera/13.0sp1/nios2eds/bin/gnu/H-i686-pc-linux-gnu/bin/../lib/gcc/nios2-elf/4.1.2/../../../../nios2-elf/lib/mno-hw-mul/libc.a(lib_a-findfp.o)
 .data          0x0009eb10        0x0 /opt/altera/13.0sp1/nios2eds/bin/gnu/H-i686-pc-linux-gnu/bin/../lib/gcc/nios2-elf/4.1.2/../../../../nios2-elf/lib/mno-hw-mul/libc.a(lib_a-freer.o)
 .data          0x0009eb10        0x0 /opt/altera/13.0sp1/nios2eds/bin/gnu/H-i686-pc-linux-gnu/bin/../lib/gcc/nios2-elf/4.1.2/../../../../nios2-elf/lib/mno-hw-mul/libc.a(lib_a-fvwrite.o)
 .data          0x0009eb10        0x0 /opt/altera/13.0sp1/nios2eds/bin/gnu/H-i686-pc-linux-gnu/bin/../lib/gcc/nios2-elf/4.1.2/../../../../nios2-elf/lib/mno-hw-mul/libc.a(lib_a-fwalk.o)
 .data          0x0009eb10      0x400 /opt/altera/13.0sp1/nios2eds/bin/gnu/H-i686-pc-linux-gnu/bin/../lib/gcc/nios2-elf/4.1.2/../../../../nios2-elf/lib/mno-hw-mul/libc.a(lib_a-impure.o)
 .data          0x0009ef10        0xc /opt/altera/13.0sp1/nios2eds/bin/gnu/H-i686-pc-linux-gnu/bin/../lib/gcc/nios2-elf/4.1.2/../../../../nios2-elf/lib/mno-hw-mul/libc.a(lib_a-locale.o)
                0x0009ef10                __lc_ctype
 .data          0x0009ef1c        0x0 /opt/altera/13.0sp1/nios2eds/bin/gnu/H-i686-pc-linux-gnu/bin/../lib/gcc/nios2-elf/4.1.2/../../../../nios2-elf/lib/mno-hw-mul/libc.a(lib_a-makebuf.o)
 .data          0x0009ef1c      0x408 /opt/altera/13.0sp1/nios2eds/bin/gnu/H-i686-pc-linux-gnu/bin/../lib/gcc/nios2-elf/4.1.2/../../../../nios2-elf/lib/mno-hw-mul/libc.a(lib_a-mallocr.o)
                0x0009ef1c                __malloc_av_
 .data          0x0009f324        0x0 /opt/altera/13.0sp1/nios2eds/bin/gnu/H-i686-pc-linux-gnu/bin/../lib/gcc/nios2-elf/4.1.2/../../../../nios2-elf/lib/mno-hw-mul/libc.a(lib_a-memchr.o)
 .data          0x0009f324        0x0 /opt/altera/13.0sp1/nios2eds/bin/gnu/H-i686-pc-linux-gnu/bin/../lib/gcc/nios2-elf/4.1.2/../../../../nios2-elf/lib/mno-hw-mul/libc.a(lib_a-memcpy.o)
 .data          0x0009f324        0x0 /opt/altera/13.0sp1/nios2eds/bin/gnu/H-i686-pc-linux-gnu/bin/../lib/gcc/nios2-elf/4.1.2/../../../../nios2-elf/lib/mno-hw-mul/libc.a(lib_a-memmove.o)
 .data          0x0009f324        0x0 /opt/altera/13.0sp1/nios2eds/bin/gnu/H-i686-pc-linux-gnu/bin/../lib/gcc/nios2-elf/4.1.2/../../../../nios2-elf/lib/mno-hw-mul/libc.a(lib_a-memset.o)
 .data          0x0009f324        0x0 /opt/altera/13.0sp1/nios2eds/bin/gnu/H-i686-pc-linux-gnu/bin/../lib/gcc/nios2-elf/4.1.2/../../../../nios2-elf/lib/mno-hw-mul/libc.a(lib_a-mprec.o)
 .data          0x0009f324        0x0 /opt/altera/13.0sp1/nios2eds/bin/gnu/H-i686-pc-linux-gnu/bin/../lib/gcc/nios2-elf/4.1.2/../../../../nios2-elf/lib/mno-hw-mul/libc.a(lib_a-putc.o)
 .data          0x0009f324        0x0 /opt/altera/13.0sp1/nios2eds/bin/gnu/H-i686-pc-linux-gnu/bin/../lib/gcc/nios2-elf/4.1.2/../../../../nios2-elf/lib/mno-hw-mul/libc.a(lib_a-reallocr.o)
 .data          0x0009f324        0x0 /opt/altera/13.0sp1/nios2eds/bin/gnu/H-i686-pc-linux-gnu/bin/../lib/gcc/nios2-elf/4.1.2/../../../../nios2-elf/lib/mno-hw-mul/libc.a(lib_a-s_isinfd.o)
 .data          0x0009f324        0x0 /opt/altera/13.0sp1/nios2eds/bin/gnu/H-i686-pc-linux-gnu/bin/../lib/gcc/nios2-elf/4.1.2/../../../../nios2-elf/lib/mno-hw-mul/libc.a(lib_a-s_isnand.o)
 .data          0x0009f324        0x0 /opt/altera/13.0sp1/nios2eds/bin/gnu/H-i686-pc-linux-gnu/bin/../lib/gcc/nios2-elf/4.1.2/../../../../nios2-elf/lib/mno-hw-mul/libc.a(lib_a-sbrkr.o)
 .data          0x0009f324        0x0 /opt/altera/13.0sp1/nios2eds/bin/gnu/H-i686-pc-linux-gnu/bin/../lib/gcc/nios2-elf/4.1.2/../../../../nios2-elf/lib/mno-hw-mul/libc.a(lib_a-stdio.o)
 .data          0x0009f324        0x0 /opt/altera/13.0sp1/nios2eds/bin/gnu/H-i686-pc-linux-gnu/bin/../lib/gcc/nios2-elf/4.1.2/../../../../nios2-elf/lib/mno-hw-mul/libc.a(lib_a-strcmp.o)
 .data          0x0009f324        0x0 /opt/altera/13.0sp1/nios2eds/bin/gnu/H-i686-pc-linux-gnu/bin/../lib/gcc/nios2-elf/4.1.2/../../../../nios2-elf/lib/mno-hw-mul/libc.a(lib_a-wbuf.o)
 .data          0x0009f324        0x0 /opt/altera/13.0sp1/nios2eds/bin/gnu/H-i686-pc-linux-gnu/bin/../lib/gcc/nios2-elf/4.1.2/../../../../nios2-elf/lib/mno-hw-mul/libc.a(lib_a-writer.o)
 .data          0x0009f324        0x0 /opt/altera/13.0sp1/nios2eds/bin/gnu/H-i686-pc-linux-gnu/bin/../lib/gcc/nios2-elf/4.1.2/../../../../nios2-elf/lib/mno-hw-mul/libc.a(lib_a-callocr.o)
 .data          0x0009f324        0x0 /opt/altera/13.0sp1/nios2eds/bin/gnu/H-i686-pc-linux-gnu/bin/../lib/gcc/nios2-elf/4.1.2/../../../../nios2-elf/lib/mno-hw-mul/libc.a(lib_a-closer.o)
 .data          0x0009f324        0x0 /opt/altera/13.0sp1/nios2eds/bin/gnu/H-i686-pc-linux-gnu/bin/../lib/gcc/nios2-elf/4.1.2/../../../../nios2-elf/lib/mno-hw-mul/libc.a(lib_a-fclose.o)
 .data          0x0009f324        0x0 /opt/altera/13.0sp1/nios2eds/bin/gnu/H-i686-pc-linux-gnu/bin/../lib/gcc/nios2-elf/4.1.2/../../../../nios2-elf/lib/mno-hw-mul/libc.a(lib_a-fstatr.o)
 .data          0x0009f324        0x0 /opt/altera/13.0sp1/nios2eds/bin/gnu/H-i686-pc-linux-gnu/bin/../lib/gcc/nios2-elf/4.1.2/../../../../nios2-elf/lib/mno-hw-mul/libc.a(lib_a-int_errno.o)
 .data          0x0009f324        0x0 /opt/altera/13.0sp1/nios2eds/bin/gnu/H-i686-pc-linux-gnu/bin/../lib/gcc/nios2-elf/4.1.2/../../../../nios2-elf/lib/mno-hw-mul/libc.a(lib_a-isattyr.o)
 .data          0x0009f324        0x0 /opt/altera/13.0sp1/nios2eds/bin/gnu/H-i686-pc-linux-gnu/bin/../lib/gcc/nios2-elf/4.1.2/../../../../nios2-elf/lib/mno-hw-mul/libc.a(lib_a-lseekr.o)
 .data          0x0009f324        0x0 /opt/altera/13.0sp1/nios2eds/bin/gnu/H-i686-pc-linux-gnu/bin/../lib/gcc/nios2-elf/4.1.2/../../../../nios2-elf/lib/mno-hw-mul/libc.a(lib_a-readr.o)
 .data          0x0009f324        0x0 /opt/altera/13.0sp1/nios2eds/bin/gnu/H-i686-pc-linux-gnu/bin/../lib/gcc/nios2-elf/4.1.2/mno-hw-mul/libgcc.a(_udivdi3.o)
 .data          0x0009f324        0x0 /opt/altera/13.0sp1/nios2eds/bin/gnu/H-i686-pc-linux-gnu/bin/../lib/gcc/nios2-elf/4.1.2/mno-hw-mul/libgcc.a(_umoddi3.o)
 .data          0x0009f324        0x0 /opt/altera/13.0sp1/nios2eds/bin/gnu/H-i686-pc-linux-gnu/bin/../lib/gcc/nios2-elf/4.1.2/mno-hw-mul/libgcc.a(_addsub_df.o)
 .data          0x0009f324        0x0 /opt/altera/13.0sp1/nios2eds/bin/gnu/H-i686-pc-linux-gnu/bin/../lib/gcc/nios2-elf/4.1.2/mno-hw-mul/libgcc.a(_mul_df.o)
 .data          0x0009f324        0x0 /opt/altera/13.0sp1/nios2eds/bin/gnu/H-i686-pc-linux-gnu/bin/../lib/gcc/nios2-elf/4.1.2/mno-hw-mul/libgcc.a(_eq_df.o)
 .data          0x0009f324        0x0 /opt/altera/13.0sp1/nios2eds/bin/gnu/H-i686-pc-linux-gnu/bin/../lib/gcc/nios2-elf/4.1.2/mno-hw-mul/libgcc.a(_ne_df.o)
 .data          0x0009f324        0x0 /opt/altera/13.0sp1/nios2eds/bin/gnu/H-i686-pc-linux-gnu/bin/../lib/gcc/nios2-elf/4.1.2/mno-hw-mul/libgcc.a(_gt_df.o)
 .data          0x0009f324        0x0 /opt/altera/13.0sp1/nios2eds/bin/gnu/H-i686-pc-linux-gnu/bin/../lib/gcc/nios2-elf/4.1.2/mno-hw-mul/libgcc.a(_ge_df.o)
 .data          0x0009f324        0x0 /opt/altera/13.0sp1/nios2eds/bin/gnu/H-i686-pc-linux-gnu/bin/../lib/gcc/nios2-elf/4.1.2/mno-hw-mul/libgcc.a(_lt_df.o)
 .data          0x0009f324        0x0 /opt/altera/13.0sp1/nios2eds/bin/gnu/H-i686-pc-linux-gnu/bin/../lib/gcc/nios2-elf/4.1.2/mno-hw-mul/libgcc.a(_si_to_df.o)
 .data          0x0009f324        0x0 /opt/altera/13.0sp1/nios2eds/bin/gnu/H-i686-pc-linux-gnu/bin/../lib/gcc/nios2-elf/4.1.2/mno-hw-mul/libgcc.a(_df_to_si.o)
 .data          0x0009f324        0x0 /opt/altera/13.0sp1/nios2eds/bin/gnu/H-i686-pc-linux-gnu/bin/../lib/gcc/nios2-elf/4.1.2/mno-hw-mul/libgcc.a(_muldi3.o)
 .data          0x0009f324        0x0 /opt/altera/13.0sp1/nios2eds/bin/gnu/H-i686-pc-linux-gnu/bin/../lib/gcc/nios2-elf/4.1.2/mno-hw-mul/libgcc.a(_fpcmp_parts_df.o)
 .data          0x0009f324        0x0 ../../bsp/mpsoc_hello_ucosii_q2//libucosii_bsp.a(alt_alarm_start.o)
 .data          0x0009f324        0x0 ../../bsp/mpsoc_hello_ucosii_q2//libucosii_bsp.a(alt_close.o)
 .data          0x0009f324      0x1a8 ../../bsp/mpsoc_hello_ucosii_q2//libucosii_bsp.a(alt_dev.o)
                0x0009f324                alt_dev_null
                0x0009f34c                alt_fd_list
 .data          0x0009f4cc        0x0 ../../bsp/mpsoc_hello_ucosii_q2//libucosii_bsp.a(alt_errno.o)
 .data          0x0009f4cc        0x0 ../../bsp/mpsoc_hello_ucosii_q2//libucosii_bsp.a(alt_fstat.o)
 .data          0x0009f4cc        0x0 ../../bsp/mpsoc_hello_ucosii_q2//libucosii_bsp.a(alt_isatty.o)
 .data          0x0009f4cc        0x0 ../../bsp/mpsoc_hello_ucosii_q2//libucosii_bsp.a(alt_load.o)
 .data          0x0009f4cc        0x0 ../../bsp/mpsoc_hello_ucosii_q2//libucosii_bsp.a(alt_lseek.o)
 .data          0x0009f4cc        0x0 ../../bsp/mpsoc_hello_ucosii_q2//libucosii_bsp.a(alt_main.o)
 .data          0x0009f4cc        0x0 ../../bsp/mpsoc_hello_ucosii_q2//libucosii_bsp.a(alt_read.o)
 .data          0x0009f4cc        0x0 ../../bsp/mpsoc_hello_ucosii_q2//libucosii_bsp.a(alt_release_fd.o)
 .data          0x0009f4cc        0x0 ../../bsp/mpsoc_hello_ucosii_q2//libucosii_bsp.a(alt_sbrk.o)
 .data          0x0009f4cc        0x0 ../../bsp/mpsoc_hello_ucosii_q2//libucosii_bsp.a(alt_tick.o)
 .data          0x0009f4cc        0x0 ../../bsp/mpsoc_hello_ucosii_q2//libucosii_bsp.a(alt_write.o)
 .data          0x0009f4cc        0x0 ../../bsp/mpsoc_hello_ucosii_q2//libucosii_bsp.a(alt_env_lock.o)
 .data          0x0009f4cc        0x0 ../../bsp/mpsoc_hello_ucosii_q2//libucosii_bsp.a(alt_malloc_lock.o)
 .data          0x0009f4cc        0x0 ../../bsp/mpsoc_hello_ucosii_q2//libucosii_bsp.a(os_core.o)
 .data          0x0009f4cc        0x0 ../../bsp/mpsoc_hello_ucosii_q2//libucosii_bsp.a(os_dbg.o)
 .data          0x0009f4cc        0x0 ../../bsp/mpsoc_hello_ucosii_q2//libucosii_bsp.a(os_flag.o)
 .data          0x0009f4cc        0x0 ../../bsp/mpsoc_hello_ucosii_q2//libucosii_bsp.a(os_mem.o)
 .data          0x0009f4cc        0x0 ../../bsp/mpsoc_hello_ucosii_q2//libucosii_bsp.a(os_q.o)
 .data          0x0009f4cc        0x0 ../../bsp/mpsoc_hello_ucosii_q2//libucosii_bsp.a(os_sem.o)
 .data          0x0009f4cc        0x0 ../../bsp/mpsoc_hello_ucosii_q2//libucosii_bsp.a(os_task.o)
 .data          0x0009f4cc        0x0 ../../bsp/mpsoc_hello_ucosii_q2//libucosii_bsp.a(os_time.o)
 .data          0x0009f4cc        0x0 ../../bsp/mpsoc_hello_ucosii_q2//libucosii_bsp.a(os_tmr.o)
 .data          0x0009f4cc     0x1154 ../../bsp/mpsoc_hello_ucosii_q2//libucosii_bsp.a(alt_sys_init.o)
 .data          0x000a0620        0x0 ../../bsp/mpsoc_hello_ucosii_q2//libucosii_bsp.a(altera_avalon_jtag_uart_fd.o)
 .data          0x000a0620        0x0 ../../bsp/mpsoc_hello_ucosii_q2//libucosii_bsp.a(altera_avalon_jtag_uart_init.o)
 .data          0x000a0620        0x0 ../../bsp/mpsoc_hello_ucosii_q2//libucosii_bsp.a(altera_avalon_jtag_uart_ioctl.o)
 .data          0x000a0620        0x0 ../../bsp/mpsoc_hello_ucosii_q2//libucosii_bsp.a(altera_avalon_jtag_uart_read.o)
 .data          0x000a0620        0x0 ../../bsp/mpsoc_hello_ucosii_q2//libucosii_bsp.a(altera_avalon_jtag_uart_write.o)
 .data          0x000a0620        0x0 ../../bsp/mpsoc_hello_ucosii_q2//libucosii_bsp.a(altera_avalon_mutex.o)
 .data          0x000a0620        0x0 ../../bsp/mpsoc_hello_ucosii_q2//libucosii_bsp.a(altera_avalon_timer_sc.o)
 .data          0x000a0620        0x0 ../../bsp/mpsoc_hello_ucosii_q2//libucosii_bsp.a(alt_dcache_flush_all.o)
 .data          0x000a0620        0x0 ../../bsp/mpsoc_hello_ucosii_q2//libucosii_bsp.a(alt_dev_llist_insert.o)
 .data          0x000a0620        0x0 ../../bsp/mpsoc_hello_ucosii_q2//libucosii_bsp.a(alt_do_ctors.o)
 .data          0x000a0620        0x0 ../../bsp/mpsoc_hello_ucosii_q2//libucosii_bsp.a(alt_do_dtors.o)
 .data          0x000a0620        0x0 ../../bsp/mpsoc_hello_ucosii_q2//libucosii_bsp.a(alt_find_dev.o)
 .data          0x000a0620        0x0 ../../bsp/mpsoc_hello_ucosii_q2//libucosii_bsp.a(alt_icache_flush_all.o)
 .data          0x000a0620        0x0 ../../bsp/mpsoc_hello_ucosii_q2//libucosii_bsp.a(alt_io_redirect.o)
 .data          0x000a0620        0x0 ../../bsp/mpsoc_hello_ucosii_q2//libucosii_bsp.a(alt_irq_register.o)
 .data          0x000a0620        0x0 ../../bsp/mpsoc_hello_ucosii_q2//libucosii_bsp.a(alt_irq_vars.o)
 .data          0x000a0620        0x0 ../../bsp/mpsoc_hello_ucosii_q2//libucosii_bsp.a(alt_open.o)
 .data          0x000a0620        0x0 ../../bsp/mpsoc_hello_ucosii_q2//libucosii_bsp.a(altera_nios2_qsys_irq.o)
 .data          0x000a0620        0x0 ../../bsp/mpsoc_hello_ucosii_q2//libucosii_bsp.a(os_cpu_a.o)
 .data          0x000a0620        0x0 ../../bsp/mpsoc_hello_ucosii_q2//libucosii_bsp.a(os_cpu_c.o)
 .data          0x000a0620        0x0 ../../bsp/mpsoc_hello_ucosii_q2//libucosii_bsp.a(alt_find_file.o)
 .data          0x000a0620        0x0 ../../bsp/mpsoc_hello_ucosii_q2//libucosii_bsp.a(alt_get_fd.o)
 .data          0x000a0620        0x0 ../../bsp/mpsoc_hello_ucosii_q2//libucosii_bsp.a(alt_irq_entry.o)
 .data          0x000a0620        0x0 ../../bsp/mpsoc_hello_ucosii_q2//libucosii_bsp.a(alt_irq_handler.o)
 .data          0x000a0620        0x0 ../../bsp/mpsoc_hello_ucosii_q2//libucosii_bsp.a(alt_exception_entry.o)
 .data          0x000a0620        0x0 /opt/altera/13.0sp1/nios2eds/bin/gnu/H-i686-pc-linux-gnu/bin/../lib/gcc/nios2-elf/4.1.2/../../../../nios2-elf/lib/mno-hw-mul/libc.a(lib_a-atexit.o)
 .data          0x000a0620        0x0 /opt/altera/13.0sp1/nios2eds/bin/gnu/H-i686-pc-linux-gnu/bin/../lib/gcc/nios2-elf/4.1.2/../../../../nios2-elf/lib/mno-hw-mul/libc.a(lib_a-exit.o)
 .data          0x000a0620        0x0 /opt/altera/13.0sp1/nios2eds/bin/gnu/H-i686-pc-linux-gnu/bin/../lib/gcc/nios2-elf/4.1.2/../../../../nios2-elf/lib/mno-hw-mul/libc.a(lib_a-memcmp.o)
 .data          0x000a0620        0x0 /opt/altera/13.0sp1/nios2eds/bin/gnu/H-i686-pc-linux-gnu/bin/../lib/gcc/nios2-elf/4.1.2/../../../../nios2-elf/lib/mno-hw-mul/libc.a(lib_a-__atexit.o)
 .data          0x000a0620        0x0 /opt/altera/13.0sp1/nios2eds/bin/gnu/H-i686-pc-linux-gnu/bin/../lib/gcc/nios2-elf/4.1.2/../../../../nios2-elf/lib/mno-hw-mul/libc.a(lib_a-__call_atexit.o)
 .data          0x000a0620        0x0 /opt/altera/13.0sp1/nios2eds/bin/gnu/H-i686-pc-linux-gnu/bin/../lib/gcc/nios2-elf/4.1.2/mno-hw-mul/libgcc.a(_fixunsdfsi.o)
 .data          0x000a0620        0x0 ../../bsp/mpsoc_hello_ucosii_q2//libucosii_bsp.a(alt_exit.o)
                0x000a8620                _gp = ABSOLUTE ((. + 0x8000))
                0x000a8620                PROVIDE (gp, _gp)
 *(.rwdata .rwdata.*)
 *(.sdata .sdata.* .gnu.linkonce.s.*)
 .sdata         0x000a0620        0x2 obj/default/src/hello_ucosii.o
                0x000a0620                sequence_length
                0x000a0621                NR_ASCII_CHARS
 *fill*         0x000a0622        0x2 00
 .sdata         0x000a0624        0x8 /opt/altera/13.0sp1/nios2eds/bin/gnu/H-i686-pc-linux-gnu/bin/../lib/gcc/nios2-elf/4.1.2/../../../../nios2-elf/lib/mno-hw-mul/libc.a(lib_a-impure.o)
                0x000a0624                _impure_ptr
                0x000a0628                _global_impure_ptr
 .sdata         0x000a062c        0x8 /opt/altera/13.0sp1/nios2eds/bin/gnu/H-i686-pc-linux-gnu/bin/../lib/gcc/nios2-elf/4.1.2/../../../../nios2-elf/lib/mno-hw-mul/libc.a(lib_a-locale.o)
                0x000a062c                __mb_cur_max
 .sdata         0x000a0634        0x8 /opt/altera/13.0sp1/nios2eds/bin/gnu/H-i686-pc-linux-gnu/bin/../lib/gcc/nios2-elf/4.1.2/../../../../nios2-elf/lib/mno-hw-mul/libc.a(lib_a-mallocr.o)
                0x000a0634                __malloc_trim_threshold
                0x000a0638                __malloc_sbrk_base
 .sdata         0x000a063c       0x14 ../../bsp/mpsoc_hello_ucosii_q2//libucosii_bsp.a(alt_dev.o)
                0x000a063c                alt_fs_list
                0x000a0644                alt_dev_list
                0x000a064c                alt_max_fd
 .sdata         0x000a0650        0x4 ../../bsp/mpsoc_hello_ucosii_q2//libucosii_bsp.a(alt_errno.o)
                0x000a0650                alt_errno
 .sdata         0x000a0654        0x4 ../../bsp/mpsoc_hello_ucosii_q2//libucosii_bsp.a(alt_sbrk.o)
 .sdata         0x000a0658        0x8 ../../bsp/mpsoc_hello_ucosii_q2//libucosii_bsp.a(alt_tick.o)
                0x000a0658                alt_alarm_list
 .sdata         0x000a0660        0x4 ../../bsp/mpsoc_hello_ucosii_q2//libucosii_bsp.a(alt_env_lock.o)
 .sdata         0x000a0664        0x4 ../../bsp/mpsoc_hello_ucosii_q2//libucosii_bsp.a(alt_malloc_lock.o)
 .sdata         0x000a0668       0x74 ../../bsp/mpsoc_hello_ucosii_q2//libucosii_bsp.a(os_dbg.o)
                0x000a0668                OSDebugEn
                0x000a066c                OSEndiannessTest
                0x000a0670                OSEventEn
                0x000a0672                OSEventMax
                0x000a0674                OSEventNameSize
                0x000a0676                OSEventSize
                0x000a0678                OSEventTblSize
                0x000a067a                OSEventMultiEn
                0x000a067c                OSFlagEn
                0x000a067e                OSFlagGrpSize
                0x000a0680                OSFlagNodeSize
                0x000a0682                OSFlagWidth
                0x000a0684                OSFlagMax
                0x000a0686                OSFlagNameSize
                0x000a0688                OSLowestPrio
                0x000a068a                OSMboxEn
                0x000a068c                OSMemEn
                0x000a068e                OSMemMax
                0x000a0690                OSMemNameSize
                0x000a0692                OSMemSize
                0x000a0694                OSMemTblSize
                0x000a0696                OSMutexEn
                0x000a0698                OSPtrSize
                0x000a069a                OSQEn
                0x000a069c                OSQMax
                0x000a069e                OSQSize
                0x000a06a0                OSRdyTblSize
                0x000a06a2                OSSemEn
                0x000a06a4                OSStkWidth
                0x000a06a6                OSTaskCreateEn
                0x000a06a8                OSTaskCreateExtEn
                0x000a06aa                OSTaskDelEn
                0x000a06ac                OSTaskIdleStkSize
                0x000a06ae                OSTaskProfileEn
                0x000a06b0                OSTaskMax
                0x000a06b2                OSTaskNameSize
                0x000a06b4                OSTaskStatEn
                0x000a06b6                OSTaskStatStkSize
                0x000a06b8                OSTaskStatStkChkEn
                0x000a06ba                OSTaskSwHookEn
                0x000a06bc                OSTCBPrioTblMax
                0x000a06be                OSTCBSize
                0x000a06c0                OSTicksPerSec
                0x000a06c2                OSTimeTickHookEn
                0x000a06c4                OSVersionNbr
                0x000a06c6                OSTmrEn
                0x000a06c8                OSTmrCfgMax
                0x000a06ca                OSTmrCfgNameSize
                0x000a06cc                OSTmrCfgWheelSize
                0x000a06ce                OSTmrCfgTicksPerSec
                0x000a06d0                OSTmrSize
                0x000a06d2                OSTmrTblSize
                0x000a06d4                OSTmrWheelSize
                0x000a06d6                OSTmrWheelTblSize
                0x000a06d8                OSDataSize
 .sdata         0x000a06dc        0x8 ../../bsp/mpsoc_hello_ucosii_q2//libucosii_bsp.a(altera_avalon_mutex.o)
                0x000a06dc                alt_mutex_list
 .sdata         0x000a06e4        0x4 ../../bsp/mpsoc_hello_ucosii_q2//libucosii_bsp.a(alt_irq_vars.o)
                0x000a06e4                alt_priority_mask
 *(.sdata2 .sdata2.* .gnu.linkonce.s2.*)
                0x000a06e8                . = ALIGN (0x4)
                0x000a06e8                _edata = ABSOLUTE (.)
                0x000a06e8                PROVIDE (edata, ABSOLUTE (.))
                0x000a06e8                PROVIDE (__ram_rwdata_end, ABSOLUTE (.))
                0x000a06e8                PROVIDE (__flash_rwdata_start, LOADADDR (.rwdata))

.bss            0x000aeef0     0xc158
                0x000aeef0                __bss_start = ABSOLUTE (.)
                0x000aeef0                PROVIDE (__sbss_start, ABSOLUTE (.))
                0x000aeef0                PROVIDE (___sbss_start, ABSOLUTE (.))
 *(.dynsbss)
 *(.sbss .sbss.* .gnu.linkonce.sb.*)
 .sbss          0x000aeef0       0x1c obj/default/src/hello_ucosii.o
                0x000aeef0                Task1Semaphore
                0x000aeef4                Task1Tmr
                0x000aeef8                Task2Semaphore
                0x000aeefc                QSem
                0x000aef00                Task3Semaphore
                0x000aef04                Task2Tmr
                0x000aef08                delay
 .sbss          0x000aef0c        0x8 obj/default/src/imageProcessing.o
                0x000aef0c                grayShared
                0x000aef10                g_shared
 .sbss          0x000aef14        0xc /opt/altera/13.0sp1/nios2eds/bin/gnu/H-i686-pc-linux-gnu/bin/../lib/gcc/nios2-elf/4.1.2/../../../../nios2-elf/lib/mno-hw-mul/libc.a(lib_a-locale.o)
                0x000aef14                __nlocale_changed
                0x000aef18                __mlocale_changed
                0x000aef1c                _PathLocale
 .sbss          0x000aef20        0xc /opt/altera/13.0sp1/nios2eds/bin/gnu/H-i686-pc-linux-gnu/bin/../lib/gcc/nios2-elf/4.1.2/../../../../nios2-elf/lib/mno-hw-mul/libc.a(lib_a-mallocr.o)
                0x000aef20                __malloc_top_pad
                0x000aef24                __malloc_max_sbrked_mem
                0x000aef28                __malloc_max_total_mem
 .sbss          0x000aef2c        0x4 /opt/altera/13.0sp1/nios2eds/bin/gnu/H-i686-pc-linux-gnu/bin/../lib/gcc/nios2-elf/4.1.2/../../../../nios2-elf/lib/mno-hw-mul/libc.a(lib_a-int_errno.o)
                0x000aef2c                errno
 .sbss          0x000aef30        0x4 ../../bsp/mpsoc_hello_ucosii_q2//libucosii_bsp.a(alt_dev.o)
                0x000aef30                alt_fd_list_lock
 .sbss          0x000aef34        0xc ../../bsp/mpsoc_hello_ucosii_q2//libucosii_bsp.a(alt_main.o)
                0x000aef34                alt_argc
                0x000aef38                alt_argv
                0x000aef3c                alt_envp
 .sbss          0x000aef40        0x8 ../../bsp/mpsoc_hello_ucosii_q2//libucosii_bsp.a(alt_tick.o)
                0x000aef40                _alt_tick_rate
                0x000aef44                _alt_nticks
 .sbss          0x000aef48        0x8 ../../bsp/mpsoc_hello_ucosii_q2//libucosii_bsp.a(alt_env_lock.o)
                0x000aef4c                alt_envsem
 .sbss          0x000aef50        0x8 ../../bsp/mpsoc_hello_ucosii_q2//libucosii_bsp.a(alt_malloc_lock.o)
                0x000aef54                alt_heapsem
 .sbss          0x000aef58       0x68 ../../bsp/mpsoc_hello_ucosii_q2//libucosii_bsp.a(os_core.o)
                0x000aef58                OSTmrFreeList
                0x000aef5c                OSLockNesting
                0x000aef60                OSTmrSemSignal
                0x000aef64                OSRunning
                0x000aef68                OSIdleCtr
                0x000aef6c                OSTmrUsed
                0x000aef6e                OSPrioHighRdy
                0x000aef6f                OSPrioCur
                0x000aef70                OSTCBList
                0x000aef74                OSTickStepState
                0x000aef78                OSCtxSwCtr
                0x000aef7c                OSTmrFree
                0x000aef80                OSIdleCtrMax
                0x000aef84                OSTCBFreeList
                0x000aef88                OSCPUUsage
                0x000aef89                OSTaskCtr
                0x000aef8c                OSMemFreeList
                0x000aef90                OSTCBHighRdy
                0x000aef94                OSQFreeList
                0x000aef98                OSRdyGrp
                0x000aef99                OSRdyTbl
                0x000aef9c                OSEventFreeList
                0x000aefa0                OSIntNesting
                0x000aefa4                OSTCBCur
                0x000aefa8                OSTmrTime
                0x000aefac                OSTime
                0x000aefb0                OSTmrSem
                0x000aefb4                OSFlagFreeList
                0x000aefb8                OSStatRdy
                0x000aefbc                OSIdleCtrRun
 .sbss          0x000aefc0        0x4 ../../bsp/mpsoc_hello_ucosii_q2//libucosii_bsp.a(alt_irq_vars.o)
                0x000aefc0                alt_irq_active
 .sbss          0x000aefc4        0x2 ../../bsp/mpsoc_hello_ucosii_q2//libucosii_bsp.a(os_cpu_c.o)
 *(.sbss2 .sbss2.* .gnu.linkonce.sb2.*)
 *(.scommon)
                0x000aefc6                PROVIDE (__sbss_end, ABSOLUTE (.))
                0x000aefc6                PROVIDE (___sbss_end, ABSOLUTE (.))
 *(.dynbss)
 *(.bss .bss.* .gnu.linkonce.b.*)
 .bss           0x000aefc6        0x0 ../../bsp/mpsoc_hello_ucosii_q2//obj/HAL/src/crt0.o
 *fill*         0x000aefc6        0x2 00
 .bss           0x000aefc8       0x18 obj/default/src/hello_ucosii.o
 .bss           0x000aefe0        0x0 obj/default/src/imageProcessing.o
 .bss           0x000aefe0        0x0 /opt/altera/13.0sp1/nios2eds/bin/gnu/H-i686-pc-linux-gnu/bin/../lib/gcc/nios2-elf/4.1.2/mno-hw-mul/libgcc.a(_div_df.o)
 .bss           0x000aefe0        0x0 /opt/altera/13.0sp1/nios2eds/bin/gnu/H-i686-pc-linux-gnu/bin/../lib/gcc/nios2-elf/4.1.2/mno-hw-mul/libgcc.a(_thenan_df.o)
 .bss           0x000aefe0        0x0 /opt/altera/13.0sp1/nios2eds/bin/gnu/H-i686-pc-linux-gnu/bin/../lib/gcc/nios2-elf/4.1.2/mno-hw-mul/libgcc.a(_usi_to_df.o)
 .bss           0x000aefe0        0x0 /opt/altera/13.0sp1/nios2eds/bin/gnu/H-i686-pc-linux-gnu/bin/../lib/gcc/nios2-elf/4.1.2/mno-hw-mul/libgcc.a(lib2-divmod.o)
 .bss           0x000aefe0        0x0 /opt/altera/13.0sp1/nios2eds/bin/gnu/H-i686-pc-linux-gnu/bin/../lib/gcc/nios2-elf/4.1.2/mno-hw-mul/libgcc.a(lib2-mul.o)
 .bss           0x000aefe0        0x0 /opt/altera/13.0sp1/nios2eds/bin/gnu/H-i686-pc-linux-gnu/bin/../lib/gcc/nios2-elf/4.1.2/mno-hw-mul/libgcc.a(_clzsi2.o)
 .bss           0x000aefe0        0x0 /opt/altera/13.0sp1/nios2eds/bin/gnu/H-i686-pc-linux-gnu/bin/../lib/gcc/nios2-elf/4.1.2/mno-hw-mul/libgcc.a(_pack_df.o)
 .bss           0x000aefe0        0x0 /opt/altera/13.0sp1/nios2eds/bin/gnu/H-i686-pc-linux-gnu/bin/../lib/gcc/nios2-elf/4.1.2/mno-hw-mul/libgcc.a(_unpack_df.o)
 .bss           0x000aefe0        0x0 /opt/altera/13.0sp1/nios2eds/bin/gnu/H-i686-pc-linux-gnu/bin/../lib/gcc/nios2-elf/4.1.2/mno-hw-mul/libgcc.a(_clz.o)
 .bss           0x000aefe0        0x0 /opt/altera/13.0sp1/nios2eds/bin/gnu/H-i686-pc-linux-gnu/bin/../lib/gcc/nios2-elf/4.1.2/../../../../nios2-elf/lib/mno-hw-mul/libc.a(lib_a-printf.o)
 .bss           0x000aefe0        0x0 /opt/altera/13.0sp1/nios2eds/bin/gnu/H-i686-pc-linux-gnu/bin/../lib/gcc/nios2-elf/4.1.2/../../../../nios2-elf/lib/mno-hw-mul/libc.a(lib_a-putchar.o)
 .bss           0x000aefe0        0x0 /opt/altera/13.0sp1/nios2eds/bin/gnu/H-i686-pc-linux-gnu/bin/../lib/gcc/nios2-elf/4.1.2/../../../../nios2-elf/lib/mno-hw-mul/libc.a(lib_a-puts.o)
 .bss           0x000aefe0        0x0 /opt/altera/13.0sp1/nios2eds/bin/gnu/H-i686-pc-linux-gnu/bin/../lib/gcc/nios2-elf/4.1.2/../../../../nios2-elf/lib/mno-hw-mul/libc.a(lib_a-strlen.o)
 .bss           0x000aefe0        0x0 /opt/altera/13.0sp1/nios2eds/bin/gnu/H-i686-pc-linux-gnu/bin/../lib/gcc/nios2-elf/4.1.2/../../../../nios2-elf/lib/mno-hw-mul/libc.a(lib_a-vfprintf.o)
 .bss           0x000aefe0        0x0 /opt/altera/13.0sp1/nios2eds/bin/gnu/H-i686-pc-linux-gnu/bin/../lib/gcc/nios2-elf/4.1.2/../../../../nios2-elf/lib/mno-hw-mul/libc.a(lib_a-wsetup.o)
 .bss           0x000aefe0        0x0 /opt/altera/13.0sp1/nios2eds/bin/gnu/H-i686-pc-linux-gnu/bin/../lib/gcc/nios2-elf/4.1.2/../../../../nios2-elf/lib/mno-hw-mul/libc.a(lib_a-dtoa.o)
 .bss           0x000aefe0        0x0 /opt/altera/13.0sp1/nios2eds/bin/gnu/H-i686-pc-linux-gnu/bin/../lib/gcc/nios2-elf/4.1.2/../../../../nios2-elf/lib/mno-hw-mul/libc.a(lib_a-fflush.o)
 .bss           0x000aefe0        0x0 /opt/altera/13.0sp1/nios2eds/bin/gnu/H-i686-pc-linux-gnu/bin/../lib/gcc/nios2-elf/4.1.2/../../../../nios2-elf/lib/mno-hw-mul/libc.a(lib_a-findfp.o)
 .bss           0x000aefe0        0x0 /opt/altera/13.0sp1/nios2eds/bin/gnu/H-i686-pc-linux-gnu/bin/../lib/gcc/nios2-elf/4.1.2/../../../../nios2-elf/lib/mno-hw-mul/libc.a(lib_a-freer.o)
 .bss           0x000aefe0        0x0 /opt/altera/13.0sp1/nios2eds/bin/gnu/H-i686-pc-linux-gnu/bin/../lib/gcc/nios2-elf/4.1.2/../../../../nios2-elf/lib/mno-hw-mul/libc.a(lib_a-fvwrite.o)
 .bss           0x000aefe0        0x0 /opt/altera/13.0sp1/nios2eds/bin/gnu/H-i686-pc-linux-gnu/bin/../lib/gcc/nios2-elf/4.1.2/../../../../nios2-elf/lib/mno-hw-mul/libc.a(lib_a-fwalk.o)
 .bss           0x000aefe0        0x0 /opt/altera/13.0sp1/nios2eds/bin/gnu/H-i686-pc-linux-gnu/bin/../lib/gcc/nios2-elf/4.1.2/../../../../nios2-elf/lib/mno-hw-mul/libc.a(lib_a-impure.o)
 .bss           0x000aefe0        0x0 /opt/altera/13.0sp1/nios2eds/bin/gnu/H-i686-pc-linux-gnu/bin/../lib/gcc/nios2-elf/4.1.2/../../../../nios2-elf/lib/mno-hw-mul/libc.a(lib_a-locale.o)
 .bss           0x000aefe0        0x0 /opt/altera/13.0sp1/nios2eds/bin/gnu/H-i686-pc-linux-gnu/bin/../lib/gcc/nios2-elf/4.1.2/../../../../nios2-elf/lib/mno-hw-mul/libc.a(lib_a-makebuf.o)
 .bss           0x000aefe0       0x28 /opt/altera/13.0sp1/nios2eds/bin/gnu/H-i686-pc-linux-gnu/bin/../lib/gcc/nios2-elf/4.1.2/../../../../nios2-elf/lib/mno-hw-mul/libc.a(lib_a-mallocr.o)
                0x000aefe0                __malloc_current_mallinfo
 .bss           0x000af008        0x0 /opt/altera/13.0sp1/nios2eds/bin/gnu/H-i686-pc-linux-gnu/bin/../lib/gcc/nios2-elf/4.1.2/../../../../nios2-elf/lib/mno-hw-mul/libc.a(lib_a-memchr.o)
 .bss           0x000af008        0x0 /opt/altera/13.0sp1/nios2eds/bin/gnu/H-i686-pc-linux-gnu/bin/../lib/gcc/nios2-elf/4.1.2/../../../../nios2-elf/lib/mno-hw-mul/libc.a(lib_a-memcpy.o)
 .bss           0x000af008        0x0 /opt/altera/13.0sp1/nios2eds/bin/gnu/H-i686-pc-linux-gnu/bin/../lib/gcc/nios2-elf/4.1.2/../../../../nios2-elf/lib/mno-hw-mul/libc.a(lib_a-memmove.o)
 .bss           0x000af008        0x0 /opt/altera/13.0sp1/nios2eds/bin/gnu/H-i686-pc-linux-gnu/bin/../lib/gcc/nios2-elf/4.1.2/../../../../nios2-elf/lib/mno-hw-mul/libc.a(lib_a-memset.o)
 .bss           0x000af008        0x0 /opt/altera/13.0sp1/nios2eds/bin/gnu/H-i686-pc-linux-gnu/bin/../lib/gcc/nios2-elf/4.1.2/../../../../nios2-elf/lib/mno-hw-mul/libc.a(lib_a-mprec.o)
 .bss           0x000af008        0x0 /opt/altera/13.0sp1/nios2eds/bin/gnu/H-i686-pc-linux-gnu/bin/../lib/gcc/nios2-elf/4.1.2/../../../../nios2-elf/lib/mno-hw-mul/libc.a(lib_a-putc.o)
 .bss           0x000af008        0x0 /opt/altera/13.0sp1/nios2eds/bin/gnu/H-i686-pc-linux-gnu/bin/../lib/gcc/nios2-elf/4.1.2/../../../../nios2-elf/lib/mno-hw-mul/libc.a(lib_a-reallocr.o)
 .bss           0x000af008        0x0 /opt/altera/13.0sp1/nios2eds/bin/gnu/H-i686-pc-linux-gnu/bin/../lib/gcc/nios2-elf/4.1.2/../../../../nios2-elf/lib/mno-hw-mul/libc.a(lib_a-s_isinfd.o)
 .bss           0x000af008        0x0 /opt/altera/13.0sp1/nios2eds/bin/gnu/H-i686-pc-linux-gnu/bin/../lib/gcc/nios2-elf/4.1.2/../../../../nios2-elf/lib/mno-hw-mul/libc.a(lib_a-s_isnand.o)
 .bss           0x000af008        0x0 /opt/altera/13.0sp1/nios2eds/bin/gnu/H-i686-pc-linux-gnu/bin/../lib/gcc/nios2-elf/4.1.2/../../../../nios2-elf/lib/mno-hw-mul/libc.a(lib_a-sbrkr.o)
 .bss           0x000af008        0x0 /opt/altera/13.0sp1/nios2eds/bin/gnu/H-i686-pc-linux-gnu/bin/../lib/gcc/nios2-elf/4.1.2/../../../../nios2-elf/lib/mno-hw-mul/libc.a(lib_a-stdio.o)
 .bss           0x000af008        0x0 /opt/altera/13.0sp1/nios2eds/bin/gnu/H-i686-pc-linux-gnu/bin/../lib/gcc/nios2-elf/4.1.2/../../../../nios2-elf/lib/mno-hw-mul/libc.a(lib_a-strcmp.o)
 .bss           0x000af008        0x0 /opt/altera/13.0sp1/nios2eds/bin/gnu/H-i686-pc-linux-gnu/bin/../lib/gcc/nios2-elf/4.1.2/../../../../nios2-elf/lib/mno-hw-mul/libc.a(lib_a-wbuf.o)
 .bss           0x000af008        0x0 /opt/altera/13.0sp1/nios2eds/bin/gnu/H-i686-pc-linux-gnu/bin/../lib/gcc/nios2-elf/4.1.2/../../../../nios2-elf/lib/mno-hw-mul/libc.a(lib_a-writer.o)
 .bss           0x000af008        0x0 /opt/altera/13.0sp1/nios2eds/bin/gnu/H-i686-pc-linux-gnu/bin/../lib/gcc/nios2-elf/4.1.2/../../../../nios2-elf/lib/mno-hw-mul/libc.a(lib_a-callocr.o)
 .bss           0x000af008        0x0 /opt/altera/13.0sp1/nios2eds/bin/gnu/H-i686-pc-linux-gnu/bin/../lib/gcc/nios2-elf/4.1.2/../../../../nios2-elf/lib/mno-hw-mul/libc.a(lib_a-closer.o)
 .bss           0x000af008        0x0 /opt/altera/13.0sp1/nios2eds/bin/gnu/H-i686-pc-linux-gnu/bin/../lib/gcc/nios2-elf/4.1.2/../../../../nios2-elf/lib/mno-hw-mul/libc.a(lib_a-fclose.o)
 .bss           0x000af008        0x0 /opt/altera/13.0sp1/nios2eds/bin/gnu/H-i686-pc-linux-gnu/bin/../lib/gcc/nios2-elf/4.1.2/../../../../nios2-elf/lib/mno-hw-mul/libc.a(lib_a-fstatr.o)
 .bss           0x000af008        0x0 /opt/altera/13.0sp1/nios2eds/bin/gnu/H-i686-pc-linux-gnu/bin/../lib/gcc/nios2-elf/4.1.2/../../../../nios2-elf/lib/mno-hw-mul/libc.a(lib_a-int_errno.o)
 .bss           0x000af008        0x0 /opt/altera/13.0sp1/nios2eds/bin/gnu/H-i686-pc-linux-gnu/bin/../lib/gcc/nios2-elf/4.1.2/../../../../nios2-elf/lib/mno-hw-mul/libc.a(lib_a-isattyr.o)
 .bss           0x000af008        0x0 /opt/altera/13.0sp1/nios2eds/bin/gnu/H-i686-pc-linux-gnu/bin/../lib/gcc/nios2-elf/4.1.2/../../../../nios2-elf/lib/mno-hw-mul/libc.a(lib_a-lseekr.o)
 .bss           0x000af008        0x0 /opt/altera/13.0sp1/nios2eds/bin/gnu/H-i686-pc-linux-gnu/bin/../lib/gcc/nios2-elf/4.1.2/../../../../nios2-elf/lib/mno-hw-mul/libc.a(lib_a-readr.o)
 .bss           0x000af008        0x0 /opt/altera/13.0sp1/nios2eds/bin/gnu/H-i686-pc-linux-gnu/bin/../lib/gcc/nios2-elf/4.1.2/mno-hw-mul/libgcc.a(_udivdi3.o)
 .bss           0x000af008        0x0 /opt/altera/13.0sp1/nios2eds/bin/gnu/H-i686-pc-linux-gnu/bin/../lib/gcc/nios2-elf/4.1.2/mno-hw-mul/libgcc.a(_umoddi3.o)
 .bss           0x000af008        0x0 /opt/altera/13.0sp1/nios2eds/bin/gnu/H-i686-pc-linux-gnu/bin/../lib/gcc/nios2-elf/4.1.2/mno-hw-mul/libgcc.a(_addsub_df.o)
 .bss           0x000af008        0x0 /opt/altera/13.0sp1/nios2eds/bin/gnu/H-i686-pc-linux-gnu/bin/../lib/gcc/nios2-elf/4.1.2/mno-hw-mul/libgcc.a(_mul_df.o)
 .bss           0x000af008        0x0 /opt/altera/13.0sp1/nios2eds/bin/gnu/H-i686-pc-linux-gnu/bin/../lib/gcc/nios2-elf/4.1.2/mno-hw-mul/libgcc.a(_eq_df.o)
 .bss           0x000af008        0x0 /opt/altera/13.0sp1/nios2eds/bin/gnu/H-i686-pc-linux-gnu/bin/../lib/gcc/nios2-elf/4.1.2/mno-hw-mul/libgcc.a(_ne_df.o)
 .bss           0x000af008        0x0 /opt/altera/13.0sp1/nios2eds/bin/gnu/H-i686-pc-linux-gnu/bin/../lib/gcc/nios2-elf/4.1.2/mno-hw-mul/libgcc.a(_gt_df.o)
 .bss           0x000af008        0x0 /opt/altera/13.0sp1/nios2eds/bin/gnu/H-i686-pc-linux-gnu/bin/../lib/gcc/nios2-elf/4.1.2/mno-hw-mul/libgcc.a(_ge_df.o)
 .bss           0x000af008        0x0 /opt/altera/13.0sp1/nios2eds/bin/gnu/H-i686-pc-linux-gnu/bin/../lib/gcc/nios2-elf/4.1.2/mno-hw-mul/libgcc.a(_lt_df.o)
 .bss           0x000af008        0x0 /opt/altera/13.0sp1/nios2eds/bin/gnu/H-i686-pc-linux-gnu/bin/../lib/gcc/nios2-elf/4.1.2/mno-hw-mul/libgcc.a(_si_to_df.o)
 .bss           0x000af008        0x0 /opt/altera/13.0sp1/nios2eds/bin/gnu/H-i686-pc-linux-gnu/bin/../lib/gcc/nios2-elf/4.1.2/mno-hw-mul/libgcc.a(_df_to_si.o)
 .bss           0x000af008        0x0 /opt/altera/13.0sp1/nios2eds/bin/gnu/H-i686-pc-linux-gnu/bin/../lib/gcc/nios2-elf/4.1.2/mno-hw-mul/libgcc.a(_muldi3.o)
 .bss           0x000af008        0x0 /opt/altera/13.0sp1/nios2eds/bin/gnu/H-i686-pc-linux-gnu/bin/../lib/gcc/nios2-elf/4.1.2/mno-hw-mul/libgcc.a(_fpcmp_parts_df.o)
 .bss           0x000af008        0x0 ../../bsp/mpsoc_hello_ucosii_q2//libucosii_bsp.a(alt_alarm_start.o)
 .bss           0x000af008        0x0 ../../bsp/mpsoc_hello_ucosii_q2//libucosii_bsp.a(alt_close.o)
 .bss           0x000af008        0x0 ../../bsp/mpsoc_hello_ucosii_q2//libucosii_bsp.a(alt_dev.o)
 .bss           0x000af008        0x0 ../../bsp/mpsoc_hello_ucosii_q2//libucosii_bsp.a(alt_errno.o)
 .bss           0x000af008        0x0 ../../bsp/mpsoc_hello_ucosii_q2//libucosii_bsp.a(alt_fstat.o)
 .bss           0x000af008        0x0 ../../bsp/mpsoc_hello_ucosii_q2//libucosii_bsp.a(alt_isatty.o)
 .bss           0x000af008        0x0 ../../bsp/mpsoc_hello_ucosii_q2//libucosii_bsp.a(alt_load.o)
 .bss           0x000af008        0x0 ../../bsp/mpsoc_hello_ucosii_q2//libucosii_bsp.a(alt_lseek.o)
 .bss           0x000af008        0x0 ../../bsp/mpsoc_hello_ucosii_q2//libucosii_bsp.a(alt_main.o)
 .bss           0x000af008        0x0 ../../bsp/mpsoc_hello_ucosii_q2//libucosii_bsp.a(alt_read.o)
 .bss           0x000af008        0x0 ../../bsp/mpsoc_hello_ucosii_q2//libucosii_bsp.a(alt_release_fd.o)
 .bss           0x000af008        0x0 ../../bsp/mpsoc_hello_ucosii_q2//libucosii_bsp.a(alt_sbrk.o)
 .bss           0x000af008        0x0 ../../bsp/mpsoc_hello_ucosii_q2//libucosii_bsp.a(alt_tick.o)
 .bss           0x000af008        0x0 ../../bsp/mpsoc_hello_ucosii_q2//libucosii_bsp.a(alt_write.o)
 .bss           0x000af008        0x0 ../../bsp/mpsoc_hello_ucosii_q2//libucosii_bsp.a(alt_env_lock.o)
 .bss           0x000af008        0x0 ../../bsp/mpsoc_hello_ucosii_q2//libucosii_bsp.a(alt_malloc_lock.o)
 .bss           0x000af008        0x0 ../../bsp/mpsoc_hello_ucosii_q2//libucosii_bsp.a(os_core.o)
 .bss           0x000af008        0x0 ../../bsp/mpsoc_hello_ucosii_q2//libucosii_bsp.a(os_dbg.o)
 .bss           0x000af008        0x0 ../../bsp/mpsoc_hello_ucosii_q2//libucosii_bsp.a(os_flag.o)
 .bss           0x000af008        0x0 ../../bsp/mpsoc_hello_ucosii_q2//libucosii_bsp.a(os_mem.o)
 .bss           0x000af008        0x0 ../../bsp/mpsoc_hello_ucosii_q2//libucosii_bsp.a(os_q.o)
 .bss           0x000af008        0x0 ../../bsp/mpsoc_hello_ucosii_q2//libucosii_bsp.a(os_sem.o)
 .bss           0x000af008        0x0 ../../bsp/mpsoc_hello_ucosii_q2//libucosii_bsp.a(os_task.o)
 .bss           0x000af008        0x0 ../../bsp/mpsoc_hello_ucosii_q2//libucosii_bsp.a(os_time.o)
 .bss           0x000af008        0x0 ../../bsp/mpsoc_hello_ucosii_q2//libucosii_bsp.a(os_tmr.o)
 .bss           0x000af008        0x0 ../../bsp/mpsoc_hello_ucosii_q2//libucosii_bsp.a(alt_sys_init.o)
 .bss           0x000af008        0x0 ../../bsp/mpsoc_hello_ucosii_q2//libucosii_bsp.a(altera_avalon_jtag_uart_fd.o)
 .bss           0x000af008        0x0 ../../bsp/mpsoc_hello_ucosii_q2//libucosii_bsp.a(altera_avalon_jtag_uart_init.o)
 .bss           0x000af008        0x0 ../../bsp/mpsoc_hello_ucosii_q2//libucosii_bsp.a(altera_avalon_jtag_uart_ioctl.o)
 .bss           0x000af008        0x0 ../../bsp/mpsoc_hello_ucosii_q2//libucosii_bsp.a(altera_avalon_jtag_uart_read.o)
 .bss           0x000af008        0x0 ../../bsp/mpsoc_hello_ucosii_q2//libucosii_bsp.a(altera_avalon_jtag_uart_write.o)
 .bss           0x000af008        0x0 ../../bsp/mpsoc_hello_ucosii_q2//libucosii_bsp.a(altera_avalon_mutex.o)
 .bss           0x000af008        0x0 ../../bsp/mpsoc_hello_ucosii_q2//libucosii_bsp.a(altera_avalon_timer_sc.o)
 .bss           0x000af008        0x0 ../../bsp/mpsoc_hello_ucosii_q2//libucosii_bsp.a(alt_dcache_flush_all.o)
 .bss           0x000af008        0x0 ../../bsp/mpsoc_hello_ucosii_q2//libucosii_bsp.a(alt_dev_llist_insert.o)
 .bss           0x000af008        0x0 ../../bsp/mpsoc_hello_ucosii_q2//libucosii_bsp.a(alt_do_ctors.o)
 .bss           0x000af008        0x0 ../../bsp/mpsoc_hello_ucosii_q2//libucosii_bsp.a(alt_do_dtors.o)
 .bss           0x000af008        0x0 ../../bsp/mpsoc_hello_ucosii_q2//libucosii_bsp.a(alt_find_dev.o)
 .bss           0x000af008        0x0 ../../bsp/mpsoc_hello_ucosii_q2//libucosii_bsp.a(alt_icache_flush_all.o)
 .bss           0x000af008        0x0 ../../bsp/mpsoc_hello_ucosii_q2//libucosii_bsp.a(alt_io_redirect.o)
 .bss           0x000af008        0x0 ../../bsp/mpsoc_hello_ucosii_q2//libucosii_bsp.a(alt_irq_register.o)
 .bss           0x000af008        0x0 ../../bsp/mpsoc_hello_ucosii_q2//libucosii_bsp.a(alt_irq_vars.o)
 .bss           0x000af008        0x0 ../../bsp/mpsoc_hello_ucosii_q2//libucosii_bsp.a(alt_open.o)
 .bss           0x000af008        0x0 ../../bsp/mpsoc_hello_ucosii_q2//libucosii_bsp.a(altera_nios2_qsys_irq.o)
 .bss           0x000af008        0x0 ../../bsp/mpsoc_hello_ucosii_q2//libucosii_bsp.a(os_cpu_a.o)
 .bss           0x000af008        0x0 ../../bsp/mpsoc_hello_ucosii_q2//libucosii_bsp.a(os_cpu_c.o)
 .bss           0x000af008        0x0 ../../bsp/mpsoc_hello_ucosii_q2//libucosii_bsp.a(alt_find_file.o)
 .bss           0x000af008        0x0 ../../bsp/mpsoc_hello_ucosii_q2//libucosii_bsp.a(alt_get_fd.o)
 .bss           0x000af008        0x0 ../../bsp/mpsoc_hello_ucosii_q2//libucosii_bsp.a(alt_irq_entry.o)
 .bss           0x000af008        0x0 ../../bsp/mpsoc_hello_ucosii_q2//libucosii_bsp.a(alt_irq_handler.o)
 .bss           0x000af008        0x0 ../../bsp/mpsoc_hello_ucosii_q2//libucosii_bsp.a(alt_exception_entry.o)
 .bss           0x000af008        0x0 /opt/altera/13.0sp1/nios2eds/bin/gnu/H-i686-pc-linux-gnu/bin/../lib/gcc/nios2-elf/4.1.2/../../../../nios2-elf/lib/mno-hw-mul/libc.a(lib_a-atexit.o)
 .bss           0x000af008        0x0 /opt/altera/13.0sp1/nios2eds/bin/gnu/H-i686-pc-linux-gnu/bin/../lib/gcc/nios2-elf/4.1.2/../../../../nios2-elf/lib/mno-hw-mul/libc.a(lib_a-exit.o)
 .bss           0x000af008        0x0 /opt/altera/13.0sp1/nios2eds/bin/gnu/H-i686-pc-linux-gnu/bin/../lib/gcc/nios2-elf/4.1.2/../../../../nios2-elf/lib/mno-hw-mul/libc.a(lib_a-memcmp.o)
 .bss           0x000af008        0x0 /opt/altera/13.0sp1/nios2eds/bin/gnu/H-i686-pc-linux-gnu/bin/../lib/gcc/nios2-elf/4.1.2/../../../../nios2-elf/lib/mno-hw-mul/libc.a(lib_a-__atexit.o)
 .bss           0x000af008        0x0 /opt/altera/13.0sp1/nios2eds/bin/gnu/H-i686-pc-linux-gnu/bin/../lib/gcc/nios2-elf/4.1.2/../../../../nios2-elf/lib/mno-hw-mul/libc.a(lib_a-__call_atexit.o)
 .bss           0x000af008        0x0 /opt/altera/13.0sp1/nios2eds/bin/gnu/H-i686-pc-linux-gnu/bin/../lib/gcc/nios2-elf/4.1.2/mno-hw-mul/libgcc.a(_fixunsdfsi.o)
 .bss           0x000af008        0x0 ../../bsp/mpsoc_hello_ucosii_q2//libucosii_bsp.a(alt_exit.o)
 *(COMMON)
 COMMON         0x000af008     0x803c obj/default/src/hello_ucosii.o
                0x000af008                task1_stk
                0x000b1008                QMsgTbl
                0x000b1044                task2_stk
                0x000b3044                task3_stk
                0x000b5044                StartTask_Stack
 COMMON         0x000b7044     0x3d74 ../../bsp/mpsoc_hello_ucosii_q2//libucosii_bsp.a(os_core.o)
                0x000b7044                OSTmrWheelTbl
                0x000b7054                OSFlagTbl
                0x000b73c4                OSTmrTbl
                0x000b7704                OSMemTbl
                0x000b8334                OSTaskStatStk
                0x000b8b34                OSQTbl
                0x000b8d14                OSTmrTaskStk
                0x000b9514                OSTaskIdleStk
                0x000b9d14                OSEventTbl
                0x000ba854                OSTCBTbl
                0x000bad64                OSTCBPrioTbl
 COMMON         0x000badb8      0x100 ../../bsp/mpsoc_hello_ucosii_q2//libucosii_bsp.a(alt_irq_handler.o)
                0x000badb8                alt_irq
 COMMON         0x000baeb8      0x190 /opt/altera/13.0sp1/nios2eds/bin/gnu/H-i686-pc-linux-gnu/bin/../lib/gcc/nios2-elf/4.1.2/../../../../nios2-elf/lib/mno-hw-mul/libc.a(lib_a-atexit.o)
                0x000baeb8                _atexit0
                0x000bb048                . = ALIGN (0x4)
                0x000bb048                __bss_end = ABSOLUTE (.)

.sram           0x000bb048        0x0
                0x000bb048                PROVIDE (_alt_partition_sram_start, ABSOLUTE (.))
 *(.sram. sram.*)
                0x000bb048                . = ALIGN (0x4)
                0x000bb048                PROVIDE (_alt_partition_sram_end, ABSOLUTE (.))
                0x000bb048                _end = ABSOLUTE (.)
                0x000bb048                end = ABSOLUTE (.)
                0x000bb048                __alt_stack_base = ABSOLUTE (.)
                0x000bb048                PROVIDE (_alt_partition_sram_load_addr, LOADADDR (.sram))

.shared_onchip  0x00102000        0x0 load address 0x000bb048
                0x00102000                PROVIDE (_alt_partition_shared_onchip_start, ABSOLUTE (.))
 *(.shared_onchip. shared_onchip.*)
                0x00102000                . = ALIGN (0x4)
                0x00102000                PROVIDE (_alt_partition_shared_onchip_end, ABSOLUTE (.))
                0x000bb048                PROVIDE (_alt_partition_shared_onchip_load_addr, LOADADDR (.shared_onchip))

.sdram          0x01000000        0x0 load address 0x000bb048
                0x01000000                PROVIDE (_alt_partition_sdram_start, ABSOLUTE (.))
 *(.sdram. sdram.*)
                0x01000000                . = ALIGN (0x4)
                0x01000000                PROVIDE (_alt_partition_sdram_end, ABSOLUTE (.))
                0x000bb048                PROVIDE (_alt_partition_sdram_load_addr, LOADADDR (.sdram))

.stab
 *(.stab)

.stabstr
 *(.stabstr)

.stab.excl
 *(.stab.excl)

.stab.exclstr
 *(.stab.exclstr)

.stab.index
 *(.stab.index)

.stab.indexstr
 *(.stab.indexstr)

.comment        0x00000000       0x26
 *(.comment)
 .comment       0x00000000       0x26 obj/default/src/hello_ucosii.o
                                 0x27 (size before relaxing)
 .comment       0x00000000       0x27 obj/default/src/imageProcessing.o
 .comment       0x00000000       0x27 /opt/altera/13.0sp1/nios2eds/bin/gnu/H-i686-pc-linux-gnu/bin/../lib/gcc/nios2-elf/4.1.2/mno-hw-mul/libgcc.a(_div_df.o)
 .comment       0x00000000       0x27 /opt/altera/13.0sp1/nios2eds/bin/gnu/H-i686-pc-linux-gnu/bin/../lib/gcc/nios2-elf/4.1.2/mno-hw-mul/libgcc.a(_thenan_df.o)
 .comment       0x00000000       0x27 /opt/altera/13.0sp1/nios2eds/bin/gnu/H-i686-pc-linux-gnu/bin/../lib/gcc/nios2-elf/4.1.2/mno-hw-mul/libgcc.a(_usi_to_df.o)
 .comment       0x00000000       0x27 /opt/altera/13.0sp1/nios2eds/bin/gnu/H-i686-pc-linux-gnu/bin/../lib/gcc/nios2-elf/4.1.2/mno-hw-mul/libgcc.a(lib2-divmod.o)
 .comment       0x00000000       0x27 /opt/altera/13.0sp1/nios2eds/bin/gnu/H-i686-pc-linux-gnu/bin/../lib/gcc/nios2-elf/4.1.2/mno-hw-mul/libgcc.a(lib2-mul.o)
 .comment       0x00000000       0x27 /opt/altera/13.0sp1/nios2eds/bin/gnu/H-i686-pc-linux-gnu/bin/../lib/gcc/nios2-elf/4.1.2/mno-hw-mul/libgcc.a(_clzsi2.o)
 .comment       0x00000000       0x27 /opt/altera/13.0sp1/nios2eds/bin/gnu/H-i686-pc-linux-gnu/bin/../lib/gcc/nios2-elf/4.1.2/mno-hw-mul/libgcc.a(_pack_df.o)
 .comment       0x00000000       0x27 /opt/altera/13.0sp1/nios2eds/bin/gnu/H-i686-pc-linux-gnu/bin/../lib/gcc/nios2-elf/4.1.2/mno-hw-mul/libgcc.a(_unpack_df.o)
 .comment       0x00000000       0x27 /opt/altera/13.0sp1/nios2eds/bin/gnu/H-i686-pc-linux-gnu/bin/../lib/gcc/nios2-elf/4.1.2/mno-hw-mul/libgcc.a(_clz.o)
 .comment       0x00000000       0x27 /opt/altera/13.0sp1/nios2eds/bin/gnu/H-i686-pc-linux-gnu/bin/../lib/gcc/nios2-elf/4.1.2/../../../../nios2-elf/lib/mno-hw-mul/libc.a(lib_a-printf.o)
 .comment       0x00000000       0x27 /opt/altera/13.0sp1/nios2eds/bin/gnu/H-i686-pc-linux-gnu/bin/../lib/gcc/nios2-elf/4.1.2/../../../../nios2-elf/lib/mno-hw-mul/libc.a(lib_a-putchar.o)
 .comment       0x00000000       0x27 /opt/altera/13.0sp1/nios2eds/bin/gnu/H-i686-pc-linux-gnu/bin/../lib/gcc/nios2-elf/4.1.2/../../../../nios2-elf/lib/mno-hw-mul/libc.a(lib_a-puts.o)
 .comment       0x00000000       0x27 /opt/altera/13.0sp1/nios2eds/bin/gnu/H-i686-pc-linux-gnu/bin/../lib/gcc/nios2-elf/4.1.2/../../../../nios2-elf/lib/mno-hw-mul/libc.a(lib_a-strlen.o)
 .comment       0x00000000       0x27 /opt/altera/13.0sp1/nios2eds/bin/gnu/H-i686-pc-linux-gnu/bin/../lib/gcc/nios2-elf/4.1.2/../../../../nios2-elf/lib/mno-hw-mul/libc.a(lib_a-vfprintf.o)
 .comment       0x00000000       0x27 /opt/altera/13.0sp1/nios2eds/bin/gnu/H-i686-pc-linux-gnu/bin/../lib/gcc/nios2-elf/4.1.2/../../../../nios2-elf/lib/mno-hw-mul/libc.a(lib_a-wsetup.o)
 .comment       0x00000000       0x27 /opt/altera/13.0sp1/nios2eds/bin/gnu/H-i686-pc-linux-gnu/bin/../lib/gcc/nios2-elf/4.1.2/../../../../nios2-elf/lib/mno-hw-mul/libc.a(lib_a-dtoa.o)
 .comment       0x00000000       0x27 /opt/altera/13.0sp1/nios2eds/bin/gnu/H-i686-pc-linux-gnu/bin/../lib/gcc/nios2-elf/4.1.2/../../../../nios2-elf/lib/mno-hw-mul/libc.a(lib_a-fflush.o)
 .comment       0x00000000       0x27 /opt/altera/13.0sp1/nios2eds/bin/gnu/H-i686-pc-linux-gnu/bin/../lib/gcc/nios2-elf/4.1.2/../../../../nios2-elf/lib/mno-hw-mul/libc.a(lib_a-findfp.o)
 .comment       0x00000000       0x27 /opt/altera/13.0sp1/nios2eds/bin/gnu/H-i686-pc-linux-gnu/bin/../lib/gcc/nios2-elf/4.1.2/../../../../nios2-elf/lib/mno-hw-mul/libc.a(lib_a-freer.o)
 .comment       0x00000000       0x27 /opt/altera/13.0sp1/nios2eds/bin/gnu/H-i686-pc-linux-gnu/bin/../lib/gcc/nios2-elf/4.1.2/../../../../nios2-elf/lib/mno-hw-mul/libc.a(lib_a-fvwrite.o)
 .comment       0x00000000       0x27 /opt/altera/13.0sp1/nios2eds/bin/gnu/H-i686-pc-linux-gnu/bin/../lib/gcc/nios2-elf/4.1.2/../../../../nios2-elf/lib/mno-hw-mul/libc.a(lib_a-fwalk.o)
 .comment       0x00000000       0x27 /opt/altera/13.0sp1/nios2eds/bin/gnu/H-i686-pc-linux-gnu/bin/../lib/gcc/nios2-elf/4.1.2/../../../../nios2-elf/lib/mno-hw-mul/libc.a(lib_a-impure.o)
 .comment       0x00000000       0x27 /opt/altera/13.0sp1/nios2eds/bin/gnu/H-i686-pc-linux-gnu/bin/../lib/gcc/nios2-elf/4.1.2/../../../../nios2-elf/lib/mno-hw-mul/libc.a(lib_a-locale.o)
 .comment       0x00000000       0x27 /opt/altera/13.0sp1/nios2eds/bin/gnu/H-i686-pc-linux-gnu/bin/../lib/gcc/nios2-elf/4.1.2/../../../../nios2-elf/lib/mno-hw-mul/libc.a(lib_a-makebuf.o)
 .comment       0x00000000       0x27 /opt/altera/13.0sp1/nios2eds/bin/gnu/H-i686-pc-linux-gnu/bin/../lib/gcc/nios2-elf/4.1.2/../../../../nios2-elf/lib/mno-hw-mul/libc.a(lib_a-mallocr.o)
 .comment       0x00000000       0x27 /opt/altera/13.0sp1/nios2eds/bin/gnu/H-i686-pc-linux-gnu/bin/../lib/gcc/nios2-elf/4.1.2/../../../../nios2-elf/lib/mno-hw-mul/libc.a(lib_a-memchr.o)
 .comment       0x00000000       0x27 /opt/altera/13.0sp1/nios2eds/bin/gnu/H-i686-pc-linux-gnu/bin/../lib/gcc/nios2-elf/4.1.2/../../../../nios2-elf/lib/mno-hw-mul/libc.a(lib_a-memcpy.o)
 .comment       0x00000000       0x27 /opt/altera/13.0sp1/nios2eds/bin/gnu/H-i686-pc-linux-gnu/bin/../lib/gcc/nios2-elf/4.1.2/../../../../nios2-elf/lib/mno-hw-mul/libc.a(lib_a-memmove.o)
 .comment       0x00000000       0x27 /opt/altera/13.0sp1/nios2eds/bin/gnu/H-i686-pc-linux-gnu/bin/../lib/gcc/nios2-elf/4.1.2/../../../../nios2-elf/lib/mno-hw-mul/libc.a(lib_a-memset.o)
 .comment       0x00000000       0x27 /opt/altera/13.0sp1/nios2eds/bin/gnu/H-i686-pc-linux-gnu/bin/../lib/gcc/nios2-elf/4.1.2/../../../../nios2-elf/lib/mno-hw-mul/libc.a(lib_a-mprec.o)
 .comment       0x00000000       0x27 /opt/altera/13.0sp1/nios2eds/bin/gnu/H-i686-pc-linux-gnu/bin/../lib/gcc/nios2-elf/4.1.2/../../../../nios2-elf/lib/mno-hw-mul/libc.a(lib_a-putc.o)
 .comment       0x00000000       0x27 /opt/altera/13.0sp1/nios2eds/bin/gnu/H-i686-pc-linux-gnu/bin/../lib/gcc/nios2-elf/4.1.2/../../../../nios2-elf/lib/mno-hw-mul/libc.a(lib_a-reallocr.o)
 .comment       0x00000000       0x27 /opt/altera/13.0sp1/nios2eds/bin/gnu/H-i686-pc-linux-gnu/bin/../lib/gcc/nios2-elf/4.1.2/../../../../nios2-elf/lib/mno-hw-mul/libc.a(lib_a-s_isinfd.o)
 .comment       0x00000000       0x27 /opt/altera/13.0sp1/nios2eds/bin/gnu/H-i686-pc-linux-gnu/bin/../lib/gcc/nios2-elf/4.1.2/../../../../nios2-elf/lib/mno-hw-mul/libc.a(lib_a-s_isnand.o)
 .comment       0x00000000       0x27 /opt/altera/13.0sp1/nios2eds/bin/gnu/H-i686-pc-linux-gnu/bin/../lib/gcc/nios2-elf/4.1.2/../../../../nios2-elf/lib/mno-hw-mul/libc.a(lib_a-sbrkr.o)
 .comment       0x00000000       0x27 /opt/altera/13.0sp1/nios2eds/bin/gnu/H-i686-pc-linux-gnu/bin/../lib/gcc/nios2-elf/4.1.2/../../../../nios2-elf/lib/mno-hw-mul/libc.a(lib_a-stdio.o)
 .comment       0x00000000       0x27 /opt/altera/13.0sp1/nios2eds/bin/gnu/H-i686-pc-linux-gnu/bin/../lib/gcc/nios2-elf/4.1.2/../../../../nios2-elf/lib/mno-hw-mul/libc.a(lib_a-strcmp.o)
 .comment       0x00000000       0x27 /opt/altera/13.0sp1/nios2eds/bin/gnu/H-i686-pc-linux-gnu/bin/../lib/gcc/nios2-elf/4.1.2/../../../../nios2-elf/lib/mno-hw-mul/libc.a(lib_a-wbuf.o)
 .comment       0x00000000       0x27 /opt/altera/13.0sp1/nios2eds/bin/gnu/H-i686-pc-linux-gnu/bin/../lib/gcc/nios2-elf/4.1.2/../../../../nios2-elf/lib/mno-hw-mul/libc.a(lib_a-writer.o)
 .comment       0x00000000       0x27 /opt/altera/13.0sp1/nios2eds/bin/gnu/H-i686-pc-linux-gnu/bin/../lib/gcc/nios2-elf/4.1.2/../../../../nios2-elf/lib/mno-hw-mul/libc.a(lib_a-callocr.o)
 .comment       0x00000000       0x27 /opt/altera/13.0sp1/nios2eds/bin/gnu/H-i686-pc-linux-gnu/bin/../lib/gcc/nios2-elf/4.1.2/../../../../nios2-elf/lib/mno-hw-mul/libc.a(lib_a-closer.o)
 .comment       0x00000000       0x27 /opt/altera/13.0sp1/nios2eds/bin/gnu/H-i686-pc-linux-gnu/bin/../lib/gcc/nios2-elf/4.1.2/../../../../nios2-elf/lib/mno-hw-mul/libc.a(lib_a-fclose.o)
 .comment       0x00000000       0x27 /opt/altera/13.0sp1/nios2eds/bin/gnu/H-i686-pc-linux-gnu/bin/../lib/gcc/nios2-elf/4.1.2/../../../../nios2-elf/lib/mno-hw-mul/libc.a(lib_a-fstatr.o)
 .comment       0x00000000       0x27 /opt/altera/13.0sp1/nios2eds/bin/gnu/H-i686-pc-linux-gnu/bin/../lib/gcc/nios2-elf/4.1.2/../../../../nios2-elf/lib/mno-hw-mul/libc.a(lib_a-int_errno.o)
 .comment       0x00000000       0x27 /opt/altera/13.0sp1/nios2eds/bin/gnu/H-i686-pc-linux-gnu/bin/../lib/gcc/nios2-elf/4.1.2/../../../../nios2-elf/lib/mno-hw-mul/libc.a(lib_a-isattyr.o)
 .comment       0x00000000       0x27 /opt/altera/13.0sp1/nios2eds/bin/gnu/H-i686-pc-linux-gnu/bin/../lib/gcc/nios2-elf/4.1.2/../../../../nios2-elf/lib/mno-hw-mul/libc.a(lib_a-lseekr.o)
 .comment       0x00000000       0x27 /opt/altera/13.0sp1/nios2eds/bin/gnu/H-i686-pc-linux-gnu/bin/../lib/gcc/nios2-elf/4.1.2/../../../../nios2-elf/lib/mno-hw-mul/libc.a(lib_a-readr.o)
 .comment       0x00000000       0x27 /opt/altera/13.0sp1/nios2eds/bin/gnu/H-i686-pc-linux-gnu/bin/../lib/gcc/nios2-elf/4.1.2/mno-hw-mul/libgcc.a(_udivdi3.o)
 .comment       0x00000000       0x27 /opt/altera/13.0sp1/nios2eds/bin/gnu/H-i686-pc-linux-gnu/bin/../lib/gcc/nios2-elf/4.1.2/mno-hw-mul/libgcc.a(_umoddi3.o)
 .comment       0x00000000       0x27 /opt/altera/13.0sp1/nios2eds/bin/gnu/H-i686-pc-linux-gnu/bin/../lib/gcc/nios2-elf/4.1.2/mno-hw-mul/libgcc.a(_addsub_df.o)
 .comment       0x00000000       0x27 /opt/altera/13.0sp1/nios2eds/bin/gnu/H-i686-pc-linux-gnu/bin/../lib/gcc/nios2-elf/4.1.2/mno-hw-mul/libgcc.a(_mul_df.o)
 .comment       0x00000000       0x27 /opt/altera/13.0sp1/nios2eds/bin/gnu/H-i686-pc-linux-gnu/bin/../lib/gcc/nios2-elf/4.1.2/mno-hw-mul/libgcc.a(_eq_df.o)
 .comment       0x00000000       0x27 /opt/altera/13.0sp1/nios2eds/bin/gnu/H-i686-pc-linux-gnu/bin/../lib/gcc/nios2-elf/4.1.2/mno-hw-mul/libgcc.a(_ne_df.o)
 .comment       0x00000000       0x27 /opt/altera/13.0sp1/nios2eds/bin/gnu/H-i686-pc-linux-gnu/bin/../lib/gcc/nios2-elf/4.1.2/mno-hw-mul/libgcc.a(_gt_df.o)
 .comment       0x00000000       0x27 /opt/altera/13.0sp1/nios2eds/bin/gnu/H-i686-pc-linux-gnu/bin/../lib/gcc/nios2-elf/4.1.2/mno-hw-mul/libgcc.a(_ge_df.o)
 .comment       0x00000000       0x27 /opt/altera/13.0sp1/nios2eds/bin/gnu/H-i686-pc-linux-gnu/bin/../lib/gcc/nios2-elf/4.1.2/mno-hw-mul/libgcc.a(_lt_df.o)
 .comment       0x00000000       0x27 /opt/altera/13.0sp1/nios2eds/bin/gnu/H-i686-pc-linux-gnu/bin/../lib/gcc/nios2-elf/4.1.2/mno-hw-mul/libgcc.a(_si_to_df.o)
 .comment       0x00000000       0x27 /opt/altera/13.0sp1/nios2eds/bin/gnu/H-i686-pc-linux-gnu/bin/../lib/gcc/nios2-elf/4.1.2/mno-hw-mul/libgcc.a(_df_to_si.o)
 .comment       0x00000000       0x27 /opt/altera/13.0sp1/nios2eds/bin/gnu/H-i686-pc-linux-gnu/bin/../lib/gcc/nios2-elf/4.1.2/mno-hw-mul/libgcc.a(_muldi3.o)
 .comment       0x00000000       0x27 /opt/altera/13.0sp1/nios2eds/bin/gnu/H-i686-pc-linux-gnu/bin/../lib/gcc/nios2-elf/4.1.2/mno-hw-mul/libgcc.a(_fpcmp_parts_df.o)
 .comment       0x00000000       0x27 ../../bsp/mpsoc_hello_ucosii_q2//libucosii_bsp.a(alt_alarm_start.o)
 .comment       0x00000000       0x27 ../../bsp/mpsoc_hello_ucosii_q2//libucosii_bsp.a(alt_close.o)
 .comment       0x00000000       0x27 ../../bsp/mpsoc_hello_ucosii_q2//libucosii_bsp.a(alt_dev.o)
 .comment       0x00000000       0x27 ../../bsp/mpsoc_hello_ucosii_q2//libucosii_bsp.a(alt_errno.o)
 .comment       0x00000000       0x27 ../../bsp/mpsoc_hello_ucosii_q2//libucosii_bsp.a(alt_fstat.o)
 .comment       0x00000000       0x27 ../../bsp/mpsoc_hello_ucosii_q2//libucosii_bsp.a(alt_isatty.o)
 .comment       0x00000000       0x27 ../../bsp/mpsoc_hello_ucosii_q2//libucosii_bsp.a(alt_load.o)
 .comment       0x00000000       0x27 ../../bsp/mpsoc_hello_ucosii_q2//libucosii_bsp.a(alt_lseek.o)
 .comment       0x00000000       0x27 ../../bsp/mpsoc_hello_ucosii_q2//libucosii_bsp.a(alt_main.o)
 .comment       0x00000000       0x27 ../../bsp/mpsoc_hello_ucosii_q2//libucosii_bsp.a(alt_read.o)
 .comment       0x00000000       0x27 ../../bsp/mpsoc_hello_ucosii_q2//libucosii_bsp.a(alt_release_fd.o)
 .comment       0x00000000       0x27 ../../bsp/mpsoc_hello_ucosii_q2//libucosii_bsp.a(alt_sbrk.o)
 .comment       0x00000000       0x27 ../../bsp/mpsoc_hello_ucosii_q2//libucosii_bsp.a(alt_tick.o)
 .comment       0x00000000       0x27 ../../bsp/mpsoc_hello_ucosii_q2//libucosii_bsp.a(alt_write.o)
 .comment       0x00000000       0x27 ../../bsp/mpsoc_hello_ucosii_q2//libucosii_bsp.a(alt_env_lock.o)
 .comment       0x00000000       0x27 ../../bsp/mpsoc_hello_ucosii_q2//libucosii_bsp.a(alt_malloc_lock.o)
 .comment       0x00000000       0x27 ../../bsp/mpsoc_hello_ucosii_q2//libucosii_bsp.a(os_core.o)
 .comment       0x00000000       0x27 ../../bsp/mpsoc_hello_ucosii_q2//libucosii_bsp.a(os_dbg.o)
 .comment       0x00000000       0x27 ../../bsp/mpsoc_hello_ucosii_q2//libucosii_bsp.a(os_flag.o)
 .comment       0x00000000       0x27 ../../bsp/mpsoc_hello_ucosii_q2//libucosii_bsp.a(os_mem.o)
 .comment       0x00000000       0x27 ../../bsp/mpsoc_hello_ucosii_q2//libucosii_bsp.a(os_q.o)
 .comment       0x00000000       0x27 ../../bsp/mpsoc_hello_ucosii_q2//libucosii_bsp.a(os_sem.o)
 .comment       0x00000000       0x27 ../../bsp/mpsoc_hello_ucosii_q2//libucosii_bsp.a(os_task.o)
 .comment       0x00000000       0x27 ../../bsp/mpsoc_hello_ucosii_q2//libucosii_bsp.a(os_time.o)
 .comment       0x00000000       0x27 ../../bsp/mpsoc_hello_ucosii_q2//libucosii_bsp.a(os_tmr.o)
 .comment       0x00000000       0x27 ../../bsp/mpsoc_hello_ucosii_q2//libucosii_bsp.a(alt_sys_init.o)
 .comment       0x00000000       0x27 ../../bsp/mpsoc_hello_ucosii_q2//libucosii_bsp.a(altera_avalon_jtag_uart_fd.o)
 .comment       0x00000000       0x27 ../../bsp/mpsoc_hello_ucosii_q2//libucosii_bsp.a(altera_avalon_jtag_uart_init.o)
 .comment       0x00000000       0x27 ../../bsp/mpsoc_hello_ucosii_q2//libucosii_bsp.a(altera_avalon_jtag_uart_ioctl.o)
 .comment       0x00000000       0x27 ../../bsp/mpsoc_hello_ucosii_q2//libucosii_bsp.a(altera_avalon_jtag_uart_read.o)
 .comment       0x00000000       0x27 ../../bsp/mpsoc_hello_ucosii_q2//libucosii_bsp.a(altera_avalon_jtag_uart_write.o)
 .comment       0x00000000       0x27 ../../bsp/mpsoc_hello_ucosii_q2//libucosii_bsp.a(altera_avalon_mutex.o)
 .comment       0x00000000       0x27 ../../bsp/mpsoc_hello_ucosii_q2//libucosii_bsp.a(altera_avalon_timer_sc.o)
 .comment       0x00000000       0x27 ../../bsp/mpsoc_hello_ucosii_q2//libucosii_bsp.a(alt_dcache_flush_all.o)
 .comment       0x00000000       0x27 ../../bsp/mpsoc_hello_ucosii_q2//libucosii_bsp.a(alt_dev_llist_insert.o)
 .comment       0x00000000       0x27 ../../bsp/mpsoc_hello_ucosii_q2//libucosii_bsp.a(alt_do_ctors.o)
 .comment       0x00000000       0x27 ../../bsp/mpsoc_hello_ucosii_q2//libucosii_bsp.a(alt_do_dtors.o)
 .comment       0x00000000       0x27 ../../bsp/mpsoc_hello_ucosii_q2//libucosii_bsp.a(alt_find_dev.o)
 .comment       0x00000000       0x27 ../../bsp/mpsoc_hello_ucosii_q2//libucosii_bsp.a(alt_icache_flush_all.o)
 .comment       0x00000000       0x27 ../../bsp/mpsoc_hello_ucosii_q2//libucosii_bsp.a(alt_io_redirect.o)
 .comment       0x00000000       0x27 ../../bsp/mpsoc_hello_ucosii_q2//libucosii_bsp.a(alt_irq_register.o)
 .comment       0x00000000       0x27 ../../bsp/mpsoc_hello_ucosii_q2//libucosii_bsp.a(alt_irq_vars.o)
 .comment       0x00000000       0x27 ../../bsp/mpsoc_hello_ucosii_q2//libucosii_bsp.a(alt_open.o)
 .comment       0x00000000       0x27 ../../bsp/mpsoc_hello_ucosii_q2//libucosii_bsp.a(altera_nios2_qsys_irq.o)
 .comment       0x00000000       0x27 ../../bsp/mpsoc_hello_ucosii_q2//libucosii_bsp.a(os_cpu_c.o)
 .comment       0x00000000       0x27 ../../bsp/mpsoc_hello_ucosii_q2//libucosii_bsp.a(alt_find_file.o)
 .comment       0x00000000       0x27 ../../bsp/mpsoc_hello_ucosii_q2//libucosii_bsp.a(alt_get_fd.o)
 .comment       0x00000000       0x27 ../../bsp/mpsoc_hello_ucosii_q2//libucosii_bsp.a(alt_irq_handler.o)
 .comment       0x00000000       0x27 /opt/altera/13.0sp1/nios2eds/bin/gnu/H-i686-pc-linux-gnu/bin/../lib/gcc/nios2-elf/4.1.2/../../../../nios2-elf/lib/mno-hw-mul/libc.a(lib_a-atexit.o)
 .comment       0x00000000       0x27 /opt/altera/13.0sp1/nios2eds/bin/gnu/H-i686-pc-linux-gnu/bin/../lib/gcc/nios2-elf/4.1.2/../../../../nios2-elf/lib/mno-hw-mul/libc.a(lib_a-exit.o)
 .comment       0x00000000       0x27 /opt/altera/13.0sp1/nios2eds/bin/gnu/H-i686-pc-linux-gnu/bin/../lib/gcc/nios2-elf/4.1.2/../../../../nios2-elf/lib/mno-hw-mul/libc.a(lib_a-memcmp.o)
 .comment       0x00000000       0x27 /opt/altera/13.0sp1/nios2eds/bin/gnu/H-i686-pc-linux-gnu/bin/../lib/gcc/nios2-elf/4.1.2/../../../../nios2-elf/lib/mno-hw-mul/libc.a(lib_a-__atexit.o)
 .comment       0x00000000       0x27 /opt/altera/13.0sp1/nios2eds/bin/gnu/H-i686-pc-linux-gnu/bin/../lib/gcc/nios2-elf/4.1.2/../../../../nios2-elf/lib/mno-hw-mul/libc.a(lib_a-__call_atexit.o)
 .comment       0x00000000       0x27 /opt/altera/13.0sp1/nios2eds/bin/gnu/H-i686-pc-linux-gnu/bin/../lib/gcc/nios2-elf/4.1.2/mno-hw-mul/libgcc.a(_fixunsdfsi.o)
 .comment       0x00000000       0x27 ../../bsp/mpsoc_hello_ucosii_q2//libucosii_bsp.a(alt_exit.o)

.debug
 *(.debug)

.line
 *(.line)

.debug_srcinfo
 *(.debug_srcinfo)

.debug_sfnames
 *(.debug_sfnames)

.debug_aranges  0x00000000      0xe98
 *(.debug_aranges)
 .debug_aranges
                0x00000000       0x28 ../../bsp/mpsoc_hello_ucosii_q2//obj/HAL/src/crt0.o
 .debug_aranges
                0x00000028       0x20 obj/default/src/hello_ucosii.o
 .debug_aranges
                0x00000048       0x20 obj/default/src/imageProcessing.o
 .debug_aranges
                0x00000068       0x20 /opt/altera/13.0sp1/nios2eds/bin/gnu/H-i686-pc-linux-gnu/bin/../lib/gcc/nios2-elf/4.1.2/mno-hw-mul/libgcc.a(_div_df.o)
 .debug_aranges
                0x00000088       0x20 /opt/altera/13.0sp1/nios2eds/bin/gnu/H-i686-pc-linux-gnu/bin/../lib/gcc/nios2-elf/4.1.2/mno-hw-mul/libgcc.a(_usi_to_df.o)
 .debug_aranges
                0x000000a8       0x20 /opt/altera/13.0sp1/nios2eds/bin/gnu/H-i686-pc-linux-gnu/bin/../lib/gcc/nios2-elf/4.1.2/mno-hw-mul/libgcc.a(lib2-divmod.o)
 .debug_aranges
                0x000000c8       0x20 /opt/altera/13.0sp1/nios2eds/bin/gnu/H-i686-pc-linux-gnu/bin/../lib/gcc/nios2-elf/4.1.2/mno-hw-mul/libgcc.a(lib2-mul.o)
 .debug_aranges
                0x000000e8       0x20 /opt/altera/13.0sp1/nios2eds/bin/gnu/H-i686-pc-linux-gnu/bin/../lib/gcc/nios2-elf/4.1.2/mno-hw-mul/libgcc.a(_clzsi2.o)
 .debug_aranges
                0x00000108       0x20 /opt/altera/13.0sp1/nios2eds/bin/gnu/H-i686-pc-linux-gnu/bin/../lib/gcc/nios2-elf/4.1.2/mno-hw-mul/libgcc.a(_pack_df.o)
 .debug_aranges
                0x00000128       0x20 /opt/altera/13.0sp1/nios2eds/bin/gnu/H-i686-pc-linux-gnu/bin/../lib/gcc/nios2-elf/4.1.2/mno-hw-mul/libgcc.a(_unpack_df.o)
 .debug_aranges
                0x00000148       0x20 /opt/altera/13.0sp1/nios2eds/bin/gnu/H-i686-pc-linux-gnu/bin/../lib/gcc/nios2-elf/4.1.2/../../../../nios2-elf/lib/mno-hw-mul/libc.a(lib_a-printf.o)
 .debug_aranges
                0x00000168       0x20 /opt/altera/13.0sp1/nios2eds/bin/gnu/H-i686-pc-linux-gnu/bin/../lib/gcc/nios2-elf/4.1.2/../../../../nios2-elf/lib/mno-hw-mul/libc.a(lib_a-putchar.o)
 .debug_aranges
                0x00000188       0x20 /opt/altera/13.0sp1/nios2eds/bin/gnu/H-i686-pc-linux-gnu/bin/../lib/gcc/nios2-elf/4.1.2/../../../../nios2-elf/lib/mno-hw-mul/libc.a(lib_a-puts.o)
 .debug_aranges
                0x000001a8       0x20 /opt/altera/13.0sp1/nios2eds/bin/gnu/H-i686-pc-linux-gnu/bin/../lib/gcc/nios2-elf/4.1.2/../../../../nios2-elf/lib/mno-hw-mul/libc.a(lib_a-strlen.o)
 .debug_aranges
                0x000001c8       0x20 /opt/altera/13.0sp1/nios2eds/bin/gnu/H-i686-pc-linux-gnu/bin/../lib/gcc/nios2-elf/4.1.2/../../../../nios2-elf/lib/mno-hw-mul/libc.a(lib_a-vfprintf.o)
 .debug_aranges
                0x000001e8       0x20 /opt/altera/13.0sp1/nios2eds/bin/gnu/H-i686-pc-linux-gnu/bin/../lib/gcc/nios2-elf/4.1.2/../../../../nios2-elf/lib/mno-hw-mul/libc.a(lib_a-wsetup.o)
 .debug_aranges
                0x00000208       0x20 /opt/altera/13.0sp1/nios2eds/bin/gnu/H-i686-pc-linux-gnu/bin/../lib/gcc/nios2-elf/4.1.2/../../../../nios2-elf/lib/mno-hw-mul/libc.a(lib_a-dtoa.o)
 .debug_aranges
                0x00000228       0x20 /opt/altera/13.0sp1/nios2eds/bin/gnu/H-i686-pc-linux-gnu/bin/../lib/gcc/nios2-elf/4.1.2/../../../../nios2-elf/lib/mno-hw-mul/libc.a(lib_a-fflush.o)
 .debug_aranges
                0x00000248       0x20 /opt/altera/13.0sp1/nios2eds/bin/gnu/H-i686-pc-linux-gnu/bin/../lib/gcc/nios2-elf/4.1.2/../../../../nios2-elf/lib/mno-hw-mul/libc.a(lib_a-findfp.o)
 .debug_aranges
                0x00000268       0x20 /opt/altera/13.0sp1/nios2eds/bin/gnu/H-i686-pc-linux-gnu/bin/../lib/gcc/nios2-elf/4.1.2/../../../../nios2-elf/lib/mno-hw-mul/libc.a(lib_a-freer.o)
 .debug_aranges
                0x00000288       0x20 /opt/altera/13.0sp1/nios2eds/bin/gnu/H-i686-pc-linux-gnu/bin/../lib/gcc/nios2-elf/4.1.2/../../../../nios2-elf/lib/mno-hw-mul/libc.a(lib_a-fvwrite.o)
 .debug_aranges
                0x000002a8       0x20 /opt/altera/13.0sp1/nios2eds/bin/gnu/H-i686-pc-linux-gnu/bin/../lib/gcc/nios2-elf/4.1.2/../../../../nios2-elf/lib/mno-hw-mul/libc.a(lib_a-fwalk.o)
 .debug_aranges
                0x000002c8       0x20 /opt/altera/13.0sp1/nios2eds/bin/gnu/H-i686-pc-linux-gnu/bin/../lib/gcc/nios2-elf/4.1.2/../../../../nios2-elf/lib/mno-hw-mul/libc.a(lib_a-locale.o)
 .debug_aranges
                0x000002e8       0x20 /opt/altera/13.0sp1/nios2eds/bin/gnu/H-i686-pc-linux-gnu/bin/../lib/gcc/nios2-elf/4.1.2/../../../../nios2-elf/lib/mno-hw-mul/libc.a(lib_a-makebuf.o)
 .debug_aranges
                0x00000308       0x20 /opt/altera/13.0sp1/nios2eds/bin/gnu/H-i686-pc-linux-gnu/bin/../lib/gcc/nios2-elf/4.1.2/../../../../nios2-elf/lib/mno-hw-mul/libc.a(lib_a-mallocr.o)
 .debug_aranges
                0x00000328       0x20 /opt/altera/13.0sp1/nios2eds/bin/gnu/H-i686-pc-linux-gnu/bin/../lib/gcc/nios2-elf/4.1.2/../../../../nios2-elf/lib/mno-hw-mul/libc.a(lib_a-memchr.o)
 .debug_aranges
                0x00000348       0x20 /opt/altera/13.0sp1/nios2eds/bin/gnu/H-i686-pc-linux-gnu/bin/../lib/gcc/nios2-elf/4.1.2/../../../../nios2-elf/lib/mno-hw-mul/libc.a(lib_a-memcpy.o)
 .debug_aranges
                0x00000368       0x20 /opt/altera/13.0sp1/nios2eds/bin/gnu/H-i686-pc-linux-gnu/bin/../lib/gcc/nios2-elf/4.1.2/../../../../nios2-elf/lib/mno-hw-mul/libc.a(lib_a-memmove.o)
 .debug_aranges
                0x00000388       0x20 /opt/altera/13.0sp1/nios2eds/bin/gnu/H-i686-pc-linux-gnu/bin/../lib/gcc/nios2-elf/4.1.2/../../../../nios2-elf/lib/mno-hw-mul/libc.a(lib_a-memset.o)
 .debug_aranges
                0x000003a8       0x20 /opt/altera/13.0sp1/nios2eds/bin/gnu/H-i686-pc-linux-gnu/bin/../lib/gcc/nios2-elf/4.1.2/../../../../nios2-elf/lib/mno-hw-mul/libc.a(lib_a-mprec.o)
 .debug_aranges
                0x000003c8       0x20 /opt/altera/13.0sp1/nios2eds/bin/gnu/H-i686-pc-linux-gnu/bin/../lib/gcc/nios2-elf/4.1.2/../../../../nios2-elf/lib/mno-hw-mul/libc.a(lib_a-putc.o)
 .debug_aranges
                0x000003e8       0x20 /opt/altera/13.0sp1/nios2eds/bin/gnu/H-i686-pc-linux-gnu/bin/../lib/gcc/nios2-elf/4.1.2/../../../../nios2-elf/lib/mno-hw-mul/libc.a(lib_a-reallocr.o)
 .debug_aranges
                0x00000408       0x20 /opt/altera/13.0sp1/nios2eds/bin/gnu/H-i686-pc-linux-gnu/bin/../lib/gcc/nios2-elf/4.1.2/../../../../nios2-elf/lib/mno-hw-mul/libc.a(lib_a-s_isinfd.o)
 .debug_aranges
                0x00000428       0x20 /opt/altera/13.0sp1/nios2eds/bin/gnu/H-i686-pc-linux-gnu/bin/../lib/gcc/nios2-elf/4.1.2/../../../../nios2-elf/lib/mno-hw-mul/libc.a(lib_a-s_isnand.o)
 .debug_aranges
                0x00000448       0x20 /opt/altera/13.0sp1/nios2eds/bin/gnu/H-i686-pc-linux-gnu/bin/../lib/gcc/nios2-elf/4.1.2/../../../../nios2-elf/lib/mno-hw-mul/libc.a(lib_a-sbrkr.o)
 .debug_aranges
                0x00000468       0x20 /opt/altera/13.0sp1/nios2eds/bin/gnu/H-i686-pc-linux-gnu/bin/../lib/gcc/nios2-elf/4.1.2/../../../../nios2-elf/lib/mno-hw-mul/libc.a(lib_a-stdio.o)
 .debug_aranges
                0x00000488       0x20 /opt/altera/13.0sp1/nios2eds/bin/gnu/H-i686-pc-linux-gnu/bin/../lib/gcc/nios2-elf/4.1.2/../../../../nios2-elf/lib/mno-hw-mul/libc.a(lib_a-strcmp.o)
 .debug_aranges
                0x000004a8       0x20 /opt/altera/13.0sp1/nios2eds/bin/gnu/H-i686-pc-linux-gnu/bin/../lib/gcc/nios2-elf/4.1.2/../../../../nios2-elf/lib/mno-hw-mul/libc.a(lib_a-wbuf.o)
 .debug_aranges
                0x000004c8       0x20 /opt/altera/13.0sp1/nios2eds/bin/gnu/H-i686-pc-linux-gnu/bin/../lib/gcc/nios2-elf/4.1.2/../../../../nios2-elf/lib/mno-hw-mul/libc.a(lib_a-writer.o)
 .debug_aranges
                0x000004e8       0x20 /opt/altera/13.0sp1/nios2eds/bin/gnu/H-i686-pc-linux-gnu/bin/../lib/gcc/nios2-elf/4.1.2/../../../../nios2-elf/lib/mno-hw-mul/libc.a(lib_a-callocr.o)
 .debug_aranges
                0x00000508       0x20 /opt/altera/13.0sp1/nios2eds/bin/gnu/H-i686-pc-linux-gnu/bin/../lib/gcc/nios2-elf/4.1.2/../../../../nios2-elf/lib/mno-hw-mul/libc.a(lib_a-closer.o)
 .debug_aranges
                0x00000528       0x20 /opt/altera/13.0sp1/nios2eds/bin/gnu/H-i686-pc-linux-gnu/bin/../lib/gcc/nios2-elf/4.1.2/../../../../nios2-elf/lib/mno-hw-mul/libc.a(lib_a-fclose.o)
 .debug_aranges
                0x00000548       0x20 /opt/altera/13.0sp1/nios2eds/bin/gnu/H-i686-pc-linux-gnu/bin/../lib/gcc/nios2-elf/4.1.2/../../../../nios2-elf/lib/mno-hw-mul/libc.a(lib_a-fstatr.o)
 .debug_aranges
                0x00000568       0x20 /opt/altera/13.0sp1/nios2eds/bin/gnu/H-i686-pc-linux-gnu/bin/../lib/gcc/nios2-elf/4.1.2/../../../../nios2-elf/lib/mno-hw-mul/libc.a(lib_a-isattyr.o)
 .debug_aranges
                0x00000588       0x20 /opt/altera/13.0sp1/nios2eds/bin/gnu/H-i686-pc-linux-gnu/bin/../lib/gcc/nios2-elf/4.1.2/../../../../nios2-elf/lib/mno-hw-mul/libc.a(lib_a-lseekr.o)
 .debug_aranges
                0x000005a8       0x20 /opt/altera/13.0sp1/nios2eds/bin/gnu/H-i686-pc-linux-gnu/bin/../lib/gcc/nios2-elf/4.1.2/../../../../nios2-elf/lib/mno-hw-mul/libc.a(lib_a-readr.o)
 .debug_aranges
                0x000005c8       0x20 /opt/altera/13.0sp1/nios2eds/bin/gnu/H-i686-pc-linux-gnu/bin/../lib/gcc/nios2-elf/4.1.2/mno-hw-mul/libgcc.a(_udivdi3.o)
 .debug_aranges
                0x000005e8       0x20 /opt/altera/13.0sp1/nios2eds/bin/gnu/H-i686-pc-linux-gnu/bin/../lib/gcc/nios2-elf/4.1.2/mno-hw-mul/libgcc.a(_umoddi3.o)
 .debug_aranges
                0x00000608       0x20 /opt/altera/13.0sp1/nios2eds/bin/gnu/H-i686-pc-linux-gnu/bin/../lib/gcc/nios2-elf/4.1.2/mno-hw-mul/libgcc.a(_addsub_df.o)
 .debug_aranges
                0x00000628       0x20 /opt/altera/13.0sp1/nios2eds/bin/gnu/H-i686-pc-linux-gnu/bin/../lib/gcc/nios2-elf/4.1.2/mno-hw-mul/libgcc.a(_mul_df.o)
 .debug_aranges
                0x00000648       0x20 /opt/altera/13.0sp1/nios2eds/bin/gnu/H-i686-pc-linux-gnu/bin/../lib/gcc/nios2-elf/4.1.2/mno-hw-mul/libgcc.a(_eq_df.o)
 .debug_aranges
                0x00000668       0x20 /opt/altera/13.0sp1/nios2eds/bin/gnu/H-i686-pc-linux-gnu/bin/../lib/gcc/nios2-elf/4.1.2/mno-hw-mul/libgcc.a(_ne_df.o)
 .debug_aranges
                0x00000688       0x20 /opt/altera/13.0sp1/nios2eds/bin/gnu/H-i686-pc-linux-gnu/bin/../lib/gcc/nios2-elf/4.1.2/mno-hw-mul/libgcc.a(_gt_df.o)
 .debug_aranges
                0x000006a8       0x20 /opt/altera/13.0sp1/nios2eds/bin/gnu/H-i686-pc-linux-gnu/bin/../lib/gcc/nios2-elf/4.1.2/mno-hw-mul/libgcc.a(_ge_df.o)
 .debug_aranges
                0x000006c8       0x20 /opt/altera/13.0sp1/nios2eds/bin/gnu/H-i686-pc-linux-gnu/bin/../lib/gcc/nios2-elf/4.1.2/mno-hw-mul/libgcc.a(_lt_df.o)
 .debug_aranges
                0x000006e8       0x20 /opt/altera/13.0sp1/nios2eds/bin/gnu/H-i686-pc-linux-gnu/bin/../lib/gcc/nios2-elf/4.1.2/mno-hw-mul/libgcc.a(_si_to_df.o)
 .debug_aranges
                0x00000708       0x20 /opt/altera/13.0sp1/nios2eds/bin/gnu/H-i686-pc-linux-gnu/bin/../lib/gcc/nios2-elf/4.1.2/mno-hw-mul/libgcc.a(_df_to_si.o)
 .debug_aranges
                0x00000728       0x20 /opt/altera/13.0sp1/nios2eds/bin/gnu/H-i686-pc-linux-gnu/bin/../lib/gcc/nios2-elf/4.1.2/mno-hw-mul/libgcc.a(_muldi3.o)
 .debug_aranges
                0x00000748       0x20 /opt/altera/13.0sp1/nios2eds/bin/gnu/H-i686-pc-linux-gnu/bin/../lib/gcc/nios2-elf/4.1.2/mno-hw-mul/libgcc.a(_fpcmp_parts_df.o)
 .debug_aranges
                0x00000768       0x20 ../../bsp/mpsoc_hello_ucosii_q2//libucosii_bsp.a(alt_alarm_start.o)
 .debug_aranges
                0x00000788       0x20 ../../bsp/mpsoc_hello_ucosii_q2//libucosii_bsp.a(alt_close.o)
 .debug_aranges
                0x000007a8       0x20 ../../bsp/mpsoc_hello_ucosii_q2//libucosii_bsp.a(alt_dev.o)
 .debug_aranges
                0x000007c8       0x20 ../../bsp/mpsoc_hello_ucosii_q2//libucosii_bsp.a(alt_fstat.o)
 .debug_aranges
                0x000007e8       0x20 ../../bsp/mpsoc_hello_ucosii_q2//libucosii_bsp.a(alt_isatty.o)
 .debug_aranges
                0x00000808       0x20 ../../bsp/mpsoc_hello_ucosii_q2//libucosii_bsp.a(alt_load.o)
 .debug_aranges
                0x00000828       0x20 ../../bsp/mpsoc_hello_ucosii_q2//libucosii_bsp.a(alt_lseek.o)
 .debug_aranges
                0x00000848       0x20 ../../bsp/mpsoc_hello_ucosii_q2//libucosii_bsp.a(alt_main.o)
 .debug_aranges
                0x00000868       0x20 ../../bsp/mpsoc_hello_ucosii_q2//libucosii_bsp.a(alt_read.o)
 .debug_aranges
                0x00000888       0x20 ../../bsp/mpsoc_hello_ucosii_q2//libucosii_bsp.a(alt_release_fd.o)
 .debug_aranges
                0x000008a8       0x20 ../../bsp/mpsoc_hello_ucosii_q2//libucosii_bsp.a(alt_sbrk.o)
 .debug_aranges
                0x000008c8       0x20 ../../bsp/mpsoc_hello_ucosii_q2//libucosii_bsp.a(alt_tick.o)
 .debug_aranges
                0x000008e8       0x20 ../../bsp/mpsoc_hello_ucosii_q2//libucosii_bsp.a(alt_write.o)
 .debug_aranges
                0x00000908       0x20 ../../bsp/mpsoc_hello_ucosii_q2//libucosii_bsp.a(alt_env_lock.o)
 .debug_aranges
                0x00000928       0x20 ../../bsp/mpsoc_hello_ucosii_q2//libucosii_bsp.a(alt_malloc_lock.o)
 .debug_aranges
                0x00000948       0x20 ../../bsp/mpsoc_hello_ucosii_q2//libucosii_bsp.a(os_core.o)
 .debug_aranges
                0x00000968       0x20 ../../bsp/mpsoc_hello_ucosii_q2//libucosii_bsp.a(os_dbg.o)
 .debug_aranges
                0x00000988       0x20 ../../bsp/mpsoc_hello_ucosii_q2//libucosii_bsp.a(os_flag.o)
 .debug_aranges
                0x000009a8       0x20 ../../bsp/mpsoc_hello_ucosii_q2//libucosii_bsp.a(os_mem.o)
 .debug_aranges
                0x000009c8       0x20 ../../bsp/mpsoc_hello_ucosii_q2//libucosii_bsp.a(os_q.o)
 .debug_aranges
                0x000009e8       0x20 ../../bsp/mpsoc_hello_ucosii_q2//libucosii_bsp.a(os_sem.o)
 .debug_aranges
                0x00000a08       0x20 ../../bsp/mpsoc_hello_ucosii_q2//libucosii_bsp.a(os_task.o)
 .debug_aranges
                0x00000a28       0x20 ../../bsp/mpsoc_hello_ucosii_q2//libucosii_bsp.a(os_time.o)
 .debug_aranges
                0x00000a48       0x20 ../../bsp/mpsoc_hello_ucosii_q2//libucosii_bsp.a(os_tmr.o)
 .debug_aranges
                0x00000a68       0x20 ../../bsp/mpsoc_hello_ucosii_q2//libucosii_bsp.a(alt_sys_init.o)
 .debug_aranges
                0x00000a88       0x20 ../../bsp/mpsoc_hello_ucosii_q2//libucosii_bsp.a(altera_avalon_jtag_uart_fd.o)
 .debug_aranges
                0x00000aa8       0x20 ../../bsp/mpsoc_hello_ucosii_q2//libucosii_bsp.a(altera_avalon_jtag_uart_init.o)
 .debug_aranges
                0x00000ac8       0x20 ../../bsp/mpsoc_hello_ucosii_q2//libucosii_bsp.a(altera_avalon_jtag_uart_ioctl.o)
 .debug_aranges
                0x00000ae8       0x20 ../../bsp/mpsoc_hello_ucosii_q2//libucosii_bsp.a(altera_avalon_jtag_uart_read.o)
 .debug_aranges
                0x00000b08       0x20 ../../bsp/mpsoc_hello_ucosii_q2//libucosii_bsp.a(altera_avalon_jtag_uart_write.o)
 .debug_aranges
                0x00000b28       0x20 ../../bsp/mpsoc_hello_ucosii_q2//libucosii_bsp.a(altera_avalon_mutex.o)
 .debug_aranges
                0x00000b48       0x20 ../../bsp/mpsoc_hello_ucosii_q2//libucosii_bsp.a(altera_avalon_timer_sc.o)
 .debug_aranges
                0x00000b68       0x20 ../../bsp/mpsoc_hello_ucosii_q2//libucosii_bsp.a(alt_dcache_flush_all.o)
 .debug_aranges
                0x00000b88       0x20 ../../bsp/mpsoc_hello_ucosii_q2//libucosii_bsp.a(alt_dev_llist_insert.o)
 .debug_aranges
                0x00000ba8       0x20 ../../bsp/mpsoc_hello_ucosii_q2//libucosii_bsp.a(alt_do_ctors.o)
 .debug_aranges
                0x00000bc8       0x20 ../../bsp/mpsoc_hello_ucosii_q2//libucosii_bsp.a(alt_do_dtors.o)
 .debug_aranges
                0x00000be8       0x20 ../../bsp/mpsoc_hello_ucosii_q2//libucosii_bsp.a(alt_find_dev.o)
 .debug_aranges
                0x00000c08       0x20 ../../bsp/mpsoc_hello_ucosii_q2//libucosii_bsp.a(alt_icache_flush_all.o)
 .debug_aranges
                0x00000c28       0x20 ../../bsp/mpsoc_hello_ucosii_q2//libucosii_bsp.a(alt_io_redirect.o)
 .debug_aranges
                0x00000c48       0x20 ../../bsp/mpsoc_hello_ucosii_q2//libucosii_bsp.a(alt_irq_register.o)
 .debug_aranges
                0x00000c68       0x20 ../../bsp/mpsoc_hello_ucosii_q2//libucosii_bsp.a(alt_open.o)
 .debug_aranges
                0x00000c88       0x20 ../../bsp/mpsoc_hello_ucosii_q2//libucosii_bsp.a(altera_nios2_qsys_irq.o)
 .debug_aranges
                0x00000ca8       0x20 ../../bsp/mpsoc_hello_ucosii_q2//libucosii_bsp.a(os_cpu_a.o)
 .debug_aranges
                0x00000cc8       0x20 ../../bsp/mpsoc_hello_ucosii_q2//libucosii_bsp.a(os_cpu_c.o)
 .debug_aranges
                0x00000ce8       0x20 ../../bsp/mpsoc_hello_ucosii_q2//libucosii_bsp.a(alt_find_file.o)
 .debug_aranges
                0x00000d08       0x20 ../../bsp/mpsoc_hello_ucosii_q2//libucosii_bsp.a(alt_get_fd.o)
 .debug_aranges
                0x00000d28       0x30 ../../bsp/mpsoc_hello_ucosii_q2//libucosii_bsp.a(alt_irq_entry.o)
 .debug_aranges
                0x00000d58       0x28 ../../bsp/mpsoc_hello_ucosii_q2//libucosii_bsp.a(alt_irq_handler.o)
 .debug_aranges
                0x00000d80       0x38 ../../bsp/mpsoc_hello_ucosii_q2//libucosii_bsp.a(alt_exception_entry.o)
 .debug_aranges
                0x00000db8       0x20 /opt/altera/13.0sp1/nios2eds/bin/gnu/H-i686-pc-linux-gnu/bin/../lib/gcc/nios2-elf/4.1.2/../../../../nios2-elf/lib/mno-hw-mul/libc.a(lib_a-atexit.o)
 .debug_aranges
                0x00000dd8       0x20 /opt/altera/13.0sp1/nios2eds/bin/gnu/H-i686-pc-linux-gnu/bin/../lib/gcc/nios2-elf/4.1.2/../../../../nios2-elf/lib/mno-hw-mul/libc.a(lib_a-exit.o)
 .debug_aranges
                0x00000df8       0x20 /opt/altera/13.0sp1/nios2eds/bin/gnu/H-i686-pc-linux-gnu/bin/../lib/gcc/nios2-elf/4.1.2/../../../../nios2-elf/lib/mno-hw-mul/libc.a(lib_a-memcmp.o)
 .debug_aranges
                0x00000e18       0x20 /opt/altera/13.0sp1/nios2eds/bin/gnu/H-i686-pc-linux-gnu/bin/../lib/gcc/nios2-elf/4.1.2/../../../../nios2-elf/lib/mno-hw-mul/libc.a(lib_a-__atexit.o)
 .debug_aranges
                0x00000e38       0x20 /opt/altera/13.0sp1/nios2eds/bin/gnu/H-i686-pc-linux-gnu/bin/../lib/gcc/nios2-elf/4.1.2/../../../../nios2-elf/lib/mno-hw-mul/libc.a(lib_a-__call_atexit.o)
 .debug_aranges
                0x00000e58       0x20 /opt/altera/13.0sp1/nios2eds/bin/gnu/H-i686-pc-linux-gnu/bin/../lib/gcc/nios2-elf/4.1.2/mno-hw-mul/libgcc.a(_fixunsdfsi.o)
 .debug_aranges
                0x00000e78       0x20 ../../bsp/mpsoc_hello_ucosii_q2//libucosii_bsp.a(alt_exit.o)

.debug_pubnames
                0x00000000     0x2450
 *(.debug_pubnames)
 .debug_pubnames
                0x00000000      0x1eb obj/default/src/hello_ucosii.o
 .debug_pubnames
                0x000001eb       0x4a obj/default/src/imageProcessing.o
 .debug_pubnames
                0x00000235       0x1f /opt/altera/13.0sp1/nios2eds/bin/gnu/H-i686-pc-linux-gnu/bin/../lib/gcc/nios2-elf/4.1.2/mno-hw-mul/libgcc.a(_div_df.o)
 .debug_pubnames
                0x00000254       0x22 /opt/altera/13.0sp1/nios2eds/bin/gnu/H-i686-pc-linux-gnu/bin/../lib/gcc/nios2-elf/4.1.2/mno-hw-mul/libgcc.a(_thenan_df.o)
 .debug_pubnames
                0x00000276       0x24 /opt/altera/13.0sp1/nios2eds/bin/gnu/H-i686-pc-linux-gnu/bin/../lib/gcc/nios2-elf/4.1.2/mno-hw-mul/libgcc.a(_usi_to_df.o)
 .debug_pubnames
                0x0000029a       0x48 /opt/altera/13.0sp1/nios2eds/bin/gnu/H-i686-pc-linux-gnu/bin/../lib/gcc/nios2-elf/4.1.2/mno-hw-mul/libgcc.a(lib2-divmod.o)
 .debug_pubnames
                0x000002e2       0x1f /opt/altera/13.0sp1/nios2eds/bin/gnu/H-i686-pc-linux-gnu/bin/../lib/gcc/nios2-elf/4.1.2/mno-hw-mul/libgcc.a(lib2-mul.o)
 .debug_pubnames
                0x00000301       0x1f /opt/altera/13.0sp1/nios2eds/bin/gnu/H-i686-pc-linux-gnu/bin/../lib/gcc/nios2-elf/4.1.2/mno-hw-mul/libgcc.a(_clzsi2.o)
 .debug_pubnames
                0x00000320       0x1f /opt/altera/13.0sp1/nios2eds/bin/gnu/H-i686-pc-linux-gnu/bin/../lib/gcc/nios2-elf/4.1.2/mno-hw-mul/libgcc.a(_pack_df.o)
 .debug_pubnames
                0x0000033f       0x21 /opt/altera/13.0sp1/nios2eds/bin/gnu/H-i686-pc-linux-gnu/bin/../lib/gcc/nios2-elf/4.1.2/mno-hw-mul/libgcc.a(_unpack_df.o)
 .debug_pubnames
                0x00000360       0x20 /opt/altera/13.0sp1/nios2eds/bin/gnu/H-i686-pc-linux-gnu/bin/../lib/gcc/nios2-elf/4.1.2/mno-hw-mul/libgcc.a(_clz.o)
 .debug_pubnames
                0x00000380       0x2b /opt/altera/13.0sp1/nios2eds/bin/gnu/H-i686-pc-linux-gnu/bin/../lib/gcc/nios2-elf/4.1.2/../../../../nios2-elf/lib/mno-hw-mul/libc.a(lib_a-printf.o)
 .debug_pubnames
                0x000003ab       0x2d /opt/altera/13.0sp1/nios2eds/bin/gnu/H-i686-pc-linux-gnu/bin/../lib/gcc/nios2-elf/4.1.2/../../../../nios2-elf/lib/mno-hw-mul/libc.a(lib_a-putchar.o)
 .debug_pubnames
                0x000003d8       0x27 /opt/altera/13.0sp1/nios2eds/bin/gnu/H-i686-pc-linux-gnu/bin/../lib/gcc/nios2-elf/4.1.2/../../../../nios2-elf/lib/mno-hw-mul/libc.a(lib_a-puts.o)
 .debug_pubnames
                0x000003ff       0x1d /opt/altera/13.0sp1/nios2eds/bin/gnu/H-i686-pc-linux-gnu/bin/../lib/gcc/nios2-elf/4.1.2/../../../../nios2-elf/lib/mno-hw-mul/libc.a(lib_a-strlen.o)
 .debug_pubnames
                0x0000041c       0x45 /opt/altera/13.0sp1/nios2eds/bin/gnu/H-i686-pc-linux-gnu/bin/../lib/gcc/nios2-elf/4.1.2/../../../../nios2-elf/lib/mno-hw-mul/libc.a(lib_a-vfprintf.o)
 .debug_pubnames
                0x00000461       0x22 /opt/altera/13.0sp1/nios2eds/bin/gnu/H-i686-pc-linux-gnu/bin/../lib/gcc/nios2-elf/4.1.2/../../../../nios2-elf/lib/mno-hw-mul/libc.a(lib_a-wsetup.o)
 .debug_pubnames
                0x00000483       0x1e /opt/altera/13.0sp1/nios2eds/bin/gnu/H-i686-pc-linux-gnu/bin/../lib/gcc/nios2-elf/4.1.2/../../../../nios2-elf/lib/mno-hw-mul/libc.a(lib_a-dtoa.o)
 .debug_pubnames
                0x000004a1       0x2b /opt/altera/13.0sp1/nios2eds/bin/gnu/H-i686-pc-linux-gnu/bin/../lib/gcc/nios2-elf/4.1.2/../../../../nios2-elf/lib/mno-hw-mul/libc.a(lib_a-fflush.o)
 .debug_pubnames
                0x000004cc       0xdb /opt/altera/13.0sp1/nios2eds/bin/gnu/H-i686-pc-linux-gnu/bin/../lib/gcc/nios2-elf/4.1.2/../../../../nios2-elf/lib/mno-hw-mul/libc.a(lib_a-findfp.o)
 .debug_pubnames
                0x000005a7       0x31 /opt/altera/13.0sp1/nios2eds/bin/gnu/H-i686-pc-linux-gnu/bin/../lib/gcc/nios2-elf/4.1.2/../../../../nios2-elf/lib/mno-hw-mul/libc.a(lib_a-freer.o)
 .debug_pubnames
                0x000005d8       0x23 /opt/altera/13.0sp1/nios2eds/bin/gnu/H-i686-pc-linux-gnu/bin/../lib/gcc/nios2-elf/4.1.2/../../../../nios2-elf/lib/mno-hw-mul/libc.a(lib_a-fvwrite.o)
 .debug_pubnames
                0x000005fb       0x2e /opt/altera/13.0sp1/nios2eds/bin/gnu/H-i686-pc-linux-gnu/bin/../lib/gcc/nios2-elf/4.1.2/../../../../nios2-elf/lib/mno-hw-mul/libc.a(lib_a-fwalk.o)
 .debug_pubnames
                0x00000629       0x39 /opt/altera/13.0sp1/nios2eds/bin/gnu/H-i686-pc-linux-gnu/bin/../lib/gcc/nios2-elf/4.1.2/../../../../nios2-elf/lib/mno-hw-mul/libc.a(lib_a-impure.o)
 .debug_pubnames
                0x00000662       0xc3 /opt/altera/13.0sp1/nios2eds/bin/gnu/H-i686-pc-linux-gnu/bin/../lib/gcc/nios2-elf/4.1.2/../../../../nios2-elf/lib/mno-hw-mul/libc.a(lib_a-locale.o)
 .debug_pubnames
                0x00000725       0x23 /opt/altera/13.0sp1/nios2eds/bin/gnu/H-i686-pc-linux-gnu/bin/../lib/gcc/nios2-elf/4.1.2/../../../../nios2-elf/lib/mno-hw-mul/libc.a(lib_a-makebuf.o)
 .debug_pubnames
                0x00000748       0xce /opt/altera/13.0sp1/nios2eds/bin/gnu/H-i686-pc-linux-gnu/bin/../lib/gcc/nios2-elf/4.1.2/../../../../nios2-elf/lib/mno-hw-mul/libc.a(lib_a-mallocr.o)
 .debug_pubnames
                0x00000816       0x1d /opt/altera/13.0sp1/nios2eds/bin/gnu/H-i686-pc-linux-gnu/bin/../lib/gcc/nios2-elf/4.1.2/../../../../nios2-elf/lib/mno-hw-mul/libc.a(lib_a-memchr.o)
 .debug_pubnames
                0x00000833       0x1d /opt/altera/13.0sp1/nios2eds/bin/gnu/H-i686-pc-linux-gnu/bin/../lib/gcc/nios2-elf/4.1.2/../../../../nios2-elf/lib/mno-hw-mul/libc.a(lib_a-memcpy.o)
 .debug_pubnames
                0x00000850       0x1e /opt/altera/13.0sp1/nios2eds/bin/gnu/H-i686-pc-linux-gnu/bin/../lib/gcc/nios2-elf/4.1.2/../../../../nios2-elf/lib/mno-hw-mul/libc.a(lib_a-memmove.o)
 .debug_pubnames
                0x0000086e       0x1d /opt/altera/13.0sp1/nios2eds/bin/gnu/H-i686-pc-linux-gnu/bin/../lib/gcc/nios2-elf/4.1.2/../../../../nios2-elf/lib/mno-hw-mul/libc.a(lib_a-memset.o)
 .debug_pubnames
                0x0000088b      0x13a /opt/altera/13.0sp1/nios2eds/bin/gnu/H-i686-pc-linux-gnu/bin/../lib/gcc/nios2-elf/4.1.2/../../../../nios2-elf/lib/mno-hw-mul/libc.a(lib_a-mprec.o)
 .debug_pubnames
                0x000009c5       0x27 /opt/altera/13.0sp1/nios2eds/bin/gnu/H-i686-pc-linux-gnu/bin/../lib/gcc/nios2-elf/4.1.2/../../../../nios2-elf/lib/mno-hw-mul/libc.a(lib_a-putc.o)
 .debug_pubnames
                0x000009ec       0x21 /opt/altera/13.0sp1/nios2eds/bin/gnu/H-i686-pc-linux-gnu/bin/../lib/gcc/nios2-elf/4.1.2/../../../../nios2-elf/lib/mno-hw-mul/libc.a(lib_a-reallocr.o)
 .debug_pubnames
                0x00000a0d       0x1f /opt/altera/13.0sp1/nios2eds/bin/gnu/H-i686-pc-linux-gnu/bin/../lib/gcc/nios2-elf/4.1.2/../../../../nios2-elf/lib/mno-hw-mul/libc.a(lib_a-s_isinfd.o)
 .debug_pubnames
                0x00000a2c       0x1f /opt/altera/13.0sp1/nios2eds/bin/gnu/H-i686-pc-linux-gnu/bin/../lib/gcc/nios2-elf/4.1.2/../../../../nios2-elf/lib/mno-hw-mul/libc.a(lib_a-s_isnand.o)
 .debug_pubnames
                0x00000a4b       0x1e /opt/altera/13.0sp1/nios2eds/bin/gnu/H-i686-pc-linux-gnu/bin/../lib/gcc/nios2-elf/4.1.2/../../../../nios2-elf/lib/mno-hw-mul/libc.a(lib_a-sbrkr.o)
 .debug_pubnames
                0x00000a69       0x44 /opt/altera/13.0sp1/nios2eds/bin/gnu/H-i686-pc-linux-gnu/bin/../lib/gcc/nios2-elf/4.1.2/../../../../nios2-elf/lib/mno-hw-mul/libc.a(lib_a-stdio.o)
 .debug_pubnames
                0x00000aad       0x1d /opt/altera/13.0sp1/nios2eds/bin/gnu/H-i686-pc-linux-gnu/bin/../lib/gcc/nios2-elf/4.1.2/../../../../nios2-elf/lib/mno-hw-mul/libc.a(lib_a-strcmp.o)
 .debug_pubnames
                0x00000aca       0x2c /opt/altera/13.0sp1/nios2eds/bin/gnu/H-i686-pc-linux-gnu/bin/../lib/gcc/nios2-elf/4.1.2/../../../../nios2-elf/lib/mno-hw-mul/libc.a(lib_a-wbuf.o)
 .debug_pubnames
                0x00000af6       0x1f /opt/altera/13.0sp1/nios2eds/bin/gnu/H-i686-pc-linux-gnu/bin/../lib/gcc/nios2-elf/4.1.2/../../../../nios2-elf/lib/mno-hw-mul/libc.a(lib_a-writer.o)
 .debug_pubnames
                0x00000b15       0x20 /opt/altera/13.0sp1/nios2eds/bin/gnu/H-i686-pc-linux-gnu/bin/../lib/gcc/nios2-elf/4.1.2/../../../../nios2-elf/lib/mno-hw-mul/libc.a(lib_a-callocr.o)
 .debug_pubnames
                0x00000b35       0x1f /opt/altera/13.0sp1/nios2eds/bin/gnu/H-i686-pc-linux-gnu/bin/../lib/gcc/nios2-elf/4.1.2/../../../../nios2-elf/lib/mno-hw-mul/libc.a(lib_a-closer.o)
 .debug_pubnames
                0x00000b54       0x2b /opt/altera/13.0sp1/nios2eds/bin/gnu/H-i686-pc-linux-gnu/bin/../lib/gcc/nios2-elf/4.1.2/../../../../nios2-elf/lib/mno-hw-mul/libc.a(lib_a-fclose.o)
 .debug_pubnames
                0x00000b7f       0x1f /opt/altera/13.0sp1/nios2eds/bin/gnu/H-i686-pc-linux-gnu/bin/../lib/gcc/nios2-elf/4.1.2/../../../../nios2-elf/lib/mno-hw-mul/libc.a(lib_a-fstatr.o)
 .debug_pubnames
                0x00000b9e       0x1c /opt/altera/13.0sp1/nios2eds/bin/gnu/H-i686-pc-linux-gnu/bin/../lib/gcc/nios2-elf/4.1.2/../../../../nios2-elf/lib/mno-hw-mul/libc.a(lib_a-int_errno.o)
 .debug_pubnames
                0x00000bba       0x20 /opt/altera/13.0sp1/nios2eds/bin/gnu/H-i686-pc-linux-gnu/bin/../lib/gcc/nios2-elf/4.1.2/../../../../nios2-elf/lib/mno-hw-mul/libc.a(lib_a-isattyr.o)
 .debug_pubnames
                0x00000bda       0x1f /opt/altera/13.0sp1/nios2eds/bin/gnu/H-i686-pc-linux-gnu/bin/../lib/gcc/nios2-elf/4.1.2/../../../../nios2-elf/lib/mno-hw-mul/libc.a(lib_a-lseekr.o)
 .debug_pubnames
                0x00000bf9       0x1e /opt/altera/13.0sp1/nios2eds/bin/gnu/H-i686-pc-linux-gnu/bin/../lib/gcc/nios2-elf/4.1.2/../../../../nios2-elf/lib/mno-hw-mul/libc.a(lib_a-readr.o)
 .debug_pubnames
                0x00000c17       0x20 /opt/altera/13.0sp1/nios2eds/bin/gnu/H-i686-pc-linux-gnu/bin/../lib/gcc/nios2-elf/4.1.2/mno-hw-mul/libgcc.a(_udivdi3.o)
 .debug_pubnames
                0x00000c37       0x20 /opt/altera/13.0sp1/nios2eds/bin/gnu/H-i686-pc-linux-gnu/bin/../lib/gcc/nios2-elf/4.1.2/mno-hw-mul/libgcc.a(_umoddi3.o)
 .debug_pubnames
                0x00000c57       0x2c /opt/altera/13.0sp1/nios2eds/bin/gnu/H-i686-pc-linux-gnu/bin/../lib/gcc/nios2-elf/4.1.2/mno-hw-mul/libgcc.a(_addsub_df.o)
 .debug_pubnames
                0x00000c83       0x1f /opt/altera/13.0sp1/nios2eds/bin/gnu/H-i686-pc-linux-gnu/bin/../lib/gcc/nios2-elf/4.1.2/mno-hw-mul/libgcc.a(_mul_df.o)
 .debug_pubnames
                0x00000ca2       0x1e /opt/altera/13.0sp1/nios2eds/bin/gnu/H-i686-pc-linux-gnu/bin/../lib/gcc/nios2-elf/4.1.2/mno-hw-mul/libgcc.a(_eq_df.o)
 .debug_pubnames
                0x00000cc0       0x1e /opt/altera/13.0sp1/nios2eds/bin/gnu/H-i686-pc-linux-gnu/bin/../lib/gcc/nios2-elf/4.1.2/mno-hw-mul/libgcc.a(_ne_df.o)
 .debug_pubnames
                0x00000cde       0x1e /opt/altera/13.0sp1/nios2eds/bin/gnu/H-i686-pc-linux-gnu/bin/../lib/gcc/nios2-elf/4.1.2/mno-hw-mul/libgcc.a(_gt_df.o)
 .debug_pubnames
                0x00000cfc       0x1e /opt/altera/13.0sp1/nios2eds/bin/gnu/H-i686-pc-linux-gnu/bin/../lib/gcc/nios2-elf/4.1.2/mno-hw-mul/libgcc.a(_ge_df.o)
 .debug_pubnames
                0x00000d1a       0x1e /opt/altera/13.0sp1/nios2eds/bin/gnu/H-i686-pc-linux-gnu/bin/../lib/gcc/nios2-elf/4.1.2/mno-hw-mul/libgcc.a(_lt_df.o)
 .debug_pubnames
                0x00000d38       0x22 /opt/altera/13.0sp1/nios2eds/bin/gnu/H-i686-pc-linux-gnu/bin/../lib/gcc/nios2-elf/4.1.2/mno-hw-mul/libgcc.a(_si_to_df.o)
 .debug_pubnames
                0x00000d5a       0x20 /opt/altera/13.0sp1/nios2eds/bin/gnu/H-i686-pc-linux-gnu/bin/../lib/gcc/nios2-elf/4.1.2/mno-hw-mul/libgcc.a(_df_to_si.o)
 .debug_pubnames
                0x00000d7a       0x1f /opt/altera/13.0sp1/nios2eds/bin/gnu/H-i686-pc-linux-gnu/bin/../lib/gcc/nios2-elf/4.1.2/mno-hw-mul/libgcc.a(_muldi3.o)
 .debug_pubnames
                0x00000d99       0x26 /opt/altera/13.0sp1/nios2eds/bin/gnu/H-i686-pc-linux-gnu/bin/../lib/gcc/nios2-elf/4.1.2/mno-hw-mul/libgcc.a(_fpcmp_parts_df.o)
 .debug_pubnames
                0x00000dbf       0x26 ../../bsp/mpsoc_hello_ucosii_q2//libucosii_bsp.a(alt_alarm_start.o)
 .debug_pubnames
                0x00000de5       0x1c ../../bsp/mpsoc_hello_ucosii_q2//libucosii_bsp.a(alt_close.o)
 .debug_pubnames
                0x00000e01       0x78 ../../bsp/mpsoc_hello_ucosii_q2//libucosii_bsp.a(alt_dev.o)
 .debug_pubnames
                0x00000e79       0x20 ../../bsp/mpsoc_hello_ucosii_q2//libucosii_bsp.a(alt_errno.o)
 .debug_pubnames
                0x00000e99       0x1c ../../bsp/mpsoc_hello_ucosii_q2//libucosii_bsp.a(alt_fstat.o)
 .debug_pubnames
                0x00000eb5       0x1d ../../bsp/mpsoc_hello_ucosii_q2//libucosii_bsp.a(alt_isatty.o)
 .debug_pubnames
                0x00000ed2       0x1f ../../bsp/mpsoc_hello_ucosii_q2//libucosii_bsp.a(alt_load.o)
 .debug_pubnames
                0x00000ef1       0x1c ../../bsp/mpsoc_hello_ucosii_q2//libucosii_bsp.a(alt_lseek.o)
 .debug_pubnames
                0x00000f0d       0x46 ../../bsp/mpsoc_hello_ucosii_q2//libucosii_bsp.a(alt_main.o)
 .debug_pubnames
                0x00000f53       0x1b ../../bsp/mpsoc_hello_ucosii_q2//libucosii_bsp.a(alt_read.o)
 .debug_pubnames
                0x00000f6e       0x25 ../../bsp/mpsoc_hello_ucosii_q2//libucosii_bsp.a(alt_release_fd.o)
 .debug_pubnames
                0x00000f93       0x1b ../../bsp/mpsoc_hello_ucosii_q2//libucosii_bsp.a(alt_sbrk.o)
 .debug_pubnames
                0x00000fae       0x68 ../../bsp/mpsoc_hello_ucosii_q2//libucosii_bsp.a(alt_tick.o)
 .debug_pubnames
                0x00001016       0x1c ../../bsp/mpsoc_hello_ucosii_q2//libucosii_bsp.a(alt_write.o)
 .debug_pubnames
                0x00001032       0x41 ../../bsp/mpsoc_hello_ucosii_q2//libucosii_bsp.a(alt_env_lock.o)
 .debug_pubnames
                0x00001073       0x48 ../../bsp/mpsoc_hello_ucosii_q2//libucosii_bsp.a(alt_malloc_lock.o)
 .debug_pubnames
                0x000010bb      0x484 ../../bsp/mpsoc_hello_ucosii_q2//libucosii_bsp.a(os_core.o)
 .debug_pubnames
                0x0000153f      0x3c5 ../../bsp/mpsoc_hello_ucosii_q2//libucosii_bsp.a(os_dbg.o)
 .debug_pubnames
                0x00001904       0xd0 ../../bsp/mpsoc_hello_ucosii_q2//libucosii_bsp.a(os_flag.o)
 .debug_pubnames
                0x000019d4       0x7c ../../bsp/mpsoc_hello_ucosii_q2//libucosii_bsp.a(os_mem.o)
 .debug_pubnames
                0x00001a50       0xa9 ../../bsp/mpsoc_hello_ucosii_q2//libucosii_bsp.a(os_q.o)
 .debug_pubnames
                0x00001af9       0x8a ../../bsp/mpsoc_hello_ucosii_q2//libucosii_bsp.a(os_sem.o)
 .debug_pubnames
                0x00001b83       0xe5 ../../bsp/mpsoc_hello_ucosii_q2//libucosii_bsp.a(os_task.o)
 .debug_pubnames
                0x00001c68       0x62 ../../bsp/mpsoc_hello_ucosii_q2//libucosii_bsp.a(os_time.o)
 .debug_pubnames
                0x00001cca       0xa1 ../../bsp/mpsoc_hello_ucosii_q2//libucosii_bsp.a(os_tmr.o)
 .debug_pubnames
                0x00001d6b       0x34 ../../bsp/mpsoc_hello_ucosii_q2//libucosii_bsp.a(alt_sys_init.o)
 .debug_pubnames
                0x00001d9f       0xa5 ../../bsp/mpsoc_hello_ucosii_q2//libucosii_bsp.a(altera_avalon_jtag_uart_fd.o)
 .debug_pubnames
                0x00001e44       0x55 ../../bsp/mpsoc_hello_ucosii_q2//libucosii_bsp.a(altera_avalon_jtag_uart_init.o)
 .debug_pubnames
                0x00001e99       0x34 ../../bsp/mpsoc_hello_ucosii_q2//libucosii_bsp.a(altera_avalon_jtag_uart_ioctl.o)
 .debug_pubnames
                0x00001ecd       0x33 ../../bsp/mpsoc_hello_ucosii_q2//libucosii_bsp.a(altera_avalon_jtag_uart_read.o)
 .debug_pubnames
                0x00001f00       0x34 ../../bsp/mpsoc_hello_ucosii_q2//libucosii_bsp.a(altera_avalon_jtag_uart_write.o)
 .debug_pubnames
                0x00001f34       0xff ../../bsp/mpsoc_hello_ucosii_q2//libucosii_bsp.a(altera_avalon_mutex.o)
 .debug_pubnames
                0x00002033       0x2f ../../bsp/mpsoc_hello_ucosii_q2//libucosii_bsp.a(altera_avalon_timer_sc.o)
 .debug_pubnames
                0x00002062       0x2b ../../bsp/mpsoc_hello_ucosii_q2//libucosii_bsp.a(alt_dcache_flush_all.o)
 .debug_pubnames
                0x0000208d       0x2b ../../bsp/mpsoc_hello_ucosii_q2//libucosii_bsp.a(alt_dev_llist_insert.o)
 .debug_pubnames
                0x000020b8       0x20 ../../bsp/mpsoc_hello_ucosii_q2//libucosii_bsp.a(alt_do_ctors.o)
 .debug_pubnames
                0x000020d8       0x20 ../../bsp/mpsoc_hello_ucosii_q2//libucosii_bsp.a(alt_do_dtors.o)
 .debug_pubnames
                0x000020f8       0x23 ../../bsp/mpsoc_hello_ucosii_q2//libucosii_bsp.a(alt_find_dev.o)
 .debug_pubnames
                0x0000211b       0x2b ../../bsp/mpsoc_hello_ucosii_q2//libucosii_bsp.a(alt_icache_flush_all.o)
 .debug_pubnames
                0x00002146       0x26 ../../bsp/mpsoc_hello_ucosii_q2//libucosii_bsp.a(alt_io_redirect.o)
 .debug_pubnames
                0x0000216c       0x27 ../../bsp/mpsoc_hello_ucosii_q2//libucosii_bsp.a(alt_irq_register.o)
 .debug_pubnames
                0x00002193       0x3b ../../bsp/mpsoc_hello_ucosii_q2//libucosii_bsp.a(alt_irq_vars.o)
 .debug_pubnames
                0x000021ce       0x1b ../../bsp/mpsoc_hello_ucosii_q2//libucosii_bsp.a(alt_open.o)
 .debug_pubnames
                0x000021e9       0x31 ../../bsp/mpsoc_hello_ucosii_q2//libucosii_bsp.a(altera_nios2_qsys_irq.o)
 .debug_pubnames
                0x0000221a       0xcd ../../bsp/mpsoc_hello_ucosii_q2//libucosii_bsp.a(os_cpu_c.o)
 .debug_pubnames
                0x000022e7       0x24 ../../bsp/mpsoc_hello_ucosii_q2//libucosii_bsp.a(alt_find_file.o)
 .debug_pubnames
                0x0000230b       0x21 ../../bsp/mpsoc_hello_ucosii_q2//libucosii_bsp.a(alt_get_fd.o)
 .debug_pubnames
                0x0000232c       0x32 ../../bsp/mpsoc_hello_ucosii_q2//libucosii_bsp.a(alt_irq_handler.o)
 .debug_pubnames
                0x0000235e       0x2a /opt/altera/13.0sp1/nios2eds/bin/gnu/H-i686-pc-linux-gnu/bin/../lib/gcc/nios2-elf/4.1.2/../../../../nios2-elf/lib/mno-hw-mul/libc.a(lib_a-atexit.o)
 .debug_pubnames
                0x00002388       0x1b /opt/altera/13.0sp1/nios2eds/bin/gnu/H-i686-pc-linux-gnu/bin/../lib/gcc/nios2-elf/4.1.2/../../../../nios2-elf/lib/mno-hw-mul/libc.a(lib_a-exit.o)
 .debug_pubnames
                0x000023a3       0x1d /opt/altera/13.0sp1/nios2eds/bin/gnu/H-i686-pc-linux-gnu/bin/../lib/gcc/nios2-elf/4.1.2/../../../../nios2-elf/lib/mno-hw-mul/libc.a(lib_a-memcmp.o)
 .debug_pubnames
                0x000023c0       0x2a /opt/altera/13.0sp1/nios2eds/bin/gnu/H-i686-pc-linux-gnu/bin/../lib/gcc/nios2-elf/4.1.2/../../../../nios2-elf/lib/mno-hw-mul/libc.a(lib_a-__atexit.o)
 .debug_pubnames
                0x000023ea       0x27 /opt/altera/13.0sp1/nios2eds/bin/gnu/H-i686-pc-linux-gnu/bin/../lib/gcc/nios2-elf/4.1.2/../../../../nios2-elf/lib/mno-hw-mul/libc.a(lib_a-__call_atexit.o)
 .debug_pubnames
                0x00002411       0x23 /opt/altera/13.0sp1/nios2eds/bin/gnu/H-i686-pc-linux-gnu/bin/../lib/gcc/nios2-elf/4.1.2/mno-hw-mul/libgcc.a(_fixunsdfsi.o)
 .debug_pubnames
                0x00002434       0x1c ../../bsp/mpsoc_hello_ucosii_q2//libucosii_bsp.a(alt_exit.o)

.debug_info     0x00000000    0x2d0ab
 *(.debug_info .gnu.linkonce.wi.*)
 .debug_info    0x00000000       0x72 ../../bsp/mpsoc_hello_ucosii_q2//obj/HAL/src/crt0.o
 .debug_info    0x00000072      0x8ef obj/default/src/hello_ucosii.o
 .debug_info    0x00000961      0x168 obj/default/src/imageProcessing.o
 .debug_info    0x00000ac9      0x39b /opt/altera/13.0sp1/nios2eds/bin/gnu/H-i686-pc-linux-gnu/bin/../lib/gcc/nios2-elf/4.1.2/mno-hw-mul/libgcc.a(_div_df.o)
 .debug_info    0x00000e64      0x164 /opt/altera/13.0sp1/nios2eds/bin/gnu/H-i686-pc-linux-gnu/bin/../lib/gcc/nios2-elf/4.1.2/mno-hw-mul/libgcc.a(_thenan_df.o)
 .debug_info    0x00000fc8      0x213 /opt/altera/13.0sp1/nios2eds/bin/gnu/H-i686-pc-linux-gnu/bin/../lib/gcc/nios2-elf/4.1.2/mno-hw-mul/libgcc.a(_usi_to_df.o)
 .debug_info    0x000011db      0x21c /opt/altera/13.0sp1/nios2eds/bin/gnu/H-i686-pc-linux-gnu/bin/../lib/gcc/nios2-elf/4.1.2/mno-hw-mul/libgcc.a(lib2-divmod.o)
 .debug_info    0x000013f7       0xf3 /opt/altera/13.0sp1/nios2eds/bin/gnu/H-i686-pc-linux-gnu/bin/../lib/gcc/nios2-elf/4.1.2/mno-hw-mul/libgcc.a(lib2-mul.o)
 .debug_info    0x000014ea      0x130 /opt/altera/13.0sp1/nios2eds/bin/gnu/H-i686-pc-linux-gnu/bin/../lib/gcc/nios2-elf/4.1.2/mno-hw-mul/libgcc.a(_clzsi2.o)
 .debug_info    0x0000161a      0x2fc /opt/altera/13.0sp1/nios2eds/bin/gnu/H-i686-pc-linux-gnu/bin/../lib/gcc/nios2-elf/4.1.2/mno-hw-mul/libgcc.a(_pack_df.o)
 .debug_info    0x00001916      0x268 /opt/altera/13.0sp1/nios2eds/bin/gnu/H-i686-pc-linux-gnu/bin/../lib/gcc/nios2-elf/4.1.2/mno-hw-mul/libgcc.a(_unpack_df.o)
 .debug_info    0x00001b7e       0xc9 /opt/altera/13.0sp1/nios2eds/bin/gnu/H-i686-pc-linux-gnu/bin/../lib/gcc/nios2-elf/4.1.2/mno-hw-mul/libgcc.a(_clz.o)
 .debug_info    0x00001c47      0x9d1 /opt/altera/13.0sp1/nios2eds/bin/gnu/H-i686-pc-linux-gnu/bin/../lib/gcc/nios2-elf/4.1.2/../../../../nios2-elf/lib/mno-hw-mul/libc.a(lib_a-printf.o)
 .debug_info    0x00002618      0x972 /opt/altera/13.0sp1/nios2eds/bin/gnu/H-i686-pc-linux-gnu/bin/../lib/gcc/nios2-elf/4.1.2/../../../../nios2-elf/lib/mno-hw-mul/libc.a(lib_a-putchar.o)
 .debug_info    0x00002f8a      0xa25 /opt/altera/13.0sp1/nios2eds/bin/gnu/H-i686-pc-linux-gnu/bin/../lib/gcc/nios2-elf/4.1.2/../../../../nios2-elf/lib/mno-hw-mul/libc.a(lib_a-puts.o)
 .debug_info    0x000039af       0xdb /opt/altera/13.0sp1/nios2eds/bin/gnu/H-i686-pc-linux-gnu/bin/../lib/gcc/nios2-elf/4.1.2/../../../../nios2-elf/lib/mno-hw-mul/libc.a(lib_a-strlen.o)
 .debug_info    0x00003a8a     0x10d5 /opt/altera/13.0sp1/nios2eds/bin/gnu/H-i686-pc-linux-gnu/bin/../lib/gcc/nios2-elf/4.1.2/../../../../nios2-elf/lib/mno-hw-mul/libc.a(lib_a-vfprintf.o)
 .debug_info    0x00004b5f      0x95d /opt/altera/13.0sp1/nios2eds/bin/gnu/H-i686-pc-linux-gnu/bin/../lib/gcc/nios2-elf/4.1.2/../../../../nios2-elf/lib/mno-hw-mul/libc.a(lib_a-wsetup.o)
 .debug_info    0x000054bc      0xd6f /opt/altera/13.0sp1/nios2eds/bin/gnu/H-i686-pc-linux-gnu/bin/../lib/gcc/nios2-elf/4.1.2/../../../../nios2-elf/lib/mno-hw-mul/libc.a(lib_a-dtoa.o)
 .debug_info    0x0000622b      0x9fe /opt/altera/13.0sp1/nios2eds/bin/gnu/H-i686-pc-linux-gnu/bin/../lib/gcc/nios2-elf/4.1.2/../../../../nios2-elf/lib/mno-hw-mul/libc.a(lib_a-fflush.o)
 .debug_info    0x00006c29      0xb72 /opt/altera/13.0sp1/nios2eds/bin/gnu/H-i686-pc-linux-gnu/bin/../lib/gcc/nios2-elf/4.1.2/../../../../nios2-elf/lib/mno-hw-mul/libc.a(lib_a-findfp.o)
 .debug_info    0x0000779b      0xbc9 /opt/altera/13.0sp1/nios2eds/bin/gnu/H-i686-pc-linux-gnu/bin/../lib/gcc/nios2-elf/4.1.2/../../../../nios2-elf/lib/mno-hw-mul/libc.a(lib_a-freer.o)
 .debug_info    0x00008364      0xa88 /opt/altera/13.0sp1/nios2eds/bin/gnu/H-i686-pc-linux-gnu/bin/../lib/gcc/nios2-elf/4.1.2/../../../../nios2-elf/lib/mno-hw-mul/libc.a(lib_a-fvwrite.o)
 .debug_info    0x00008dec      0xaed /opt/altera/13.0sp1/nios2eds/bin/gnu/H-i686-pc-linux-gnu/bin/../lib/gcc/nios2-elf/4.1.2/../../../../nios2-elf/lib/mno-hw-mul/libc.a(lib_a-fwalk.o)
 .debug_info    0x000098d9      0x93d /opt/altera/13.0sp1/nios2eds/bin/gnu/H-i686-pc-linux-gnu/bin/../lib/gcc/nios2-elf/4.1.2/../../../../nios2-elf/lib/mno-hw-mul/libc.a(lib_a-impure.o)
 .debug_info    0x0000a216      0xb97 /opt/altera/13.0sp1/nios2eds/bin/gnu/H-i686-pc-linux-gnu/bin/../lib/gcc/nios2-elf/4.1.2/../../../../nios2-elf/lib/mno-hw-mul/libc.a(lib_a-locale.o)
 .debug_info    0x0000adad      0xb1a /opt/altera/13.0sp1/nios2eds/bin/gnu/H-i686-pc-linux-gnu/bin/../lib/gcc/nios2-elf/4.1.2/../../../../nios2-elf/lib/mno-hw-mul/libc.a(lib_a-makebuf.o)
 .debug_info    0x0000b8c7      0xcd0 /opt/altera/13.0sp1/nios2eds/bin/gnu/H-i686-pc-linux-gnu/bin/../lib/gcc/nios2-elf/4.1.2/../../../../nios2-elf/lib/mno-hw-mul/libc.a(lib_a-mallocr.o)
 .debug_info    0x0000c597      0x138 /opt/altera/13.0sp1/nios2eds/bin/gnu/H-i686-pc-linux-gnu/bin/../lib/gcc/nios2-elf/4.1.2/../../../../nios2-elf/lib/mno-hw-mul/libc.a(lib_a-memchr.o)
 .debug_info    0x0000c6cf      0x106 /opt/altera/13.0sp1/nios2eds/bin/gnu/H-i686-pc-linux-gnu/bin/../lib/gcc/nios2-elf/4.1.2/../../../../nios2-elf/lib/mno-hw-mul/libc.a(lib_a-memcpy.o)
 .debug_info    0x0000c7d5      0x13e /opt/altera/13.0sp1/nios2eds/bin/gnu/H-i686-pc-linux-gnu/bin/../lib/gcc/nios2-elf/4.1.2/../../../../nios2-elf/lib/mno-hw-mul/libc.a(lib_a-memmove.o)
 .debug_info    0x0000c913      0x113 /opt/altera/13.0sp1/nios2eds/bin/gnu/H-i686-pc-linux-gnu/bin/../lib/gcc/nios2-elf/4.1.2/../../../../nios2-elf/lib/mno-hw-mul/libc.a(lib_a-memset.o)
 .debug_info    0x0000ca26     0x143b /opt/altera/13.0sp1/nios2eds/bin/gnu/H-i686-pc-linux-gnu/bin/../lib/gcc/nios2-elf/4.1.2/../../../../nios2-elf/lib/mno-hw-mul/libc.a(lib_a-mprec.o)
 .debug_info    0x0000de61      0x9c1 /opt/altera/13.0sp1/nios2eds/bin/gnu/H-i686-pc-linux-gnu/bin/../lib/gcc/nios2-elf/4.1.2/../../../../nios2-elf/lib/mno-hw-mul/libc.a(lib_a-putc.o)
 .debug_info    0x0000e822      0xbd7 /opt/altera/13.0sp1/nios2eds/bin/gnu/H-i686-pc-linux-gnu/bin/../lib/gcc/nios2-elf/4.1.2/../../../../nios2-elf/lib/mno-hw-mul/libc.a(lib_a-reallocr.o)
 .debug_info    0x0000f3f9       0xd7 /opt/altera/13.0sp1/nios2eds/bin/gnu/H-i686-pc-linux-gnu/bin/../lib/gcc/nios2-elf/4.1.2/../../../../nios2-elf/lib/mno-hw-mul/libc.a(lib_a-s_isinfd.o)
 .debug_info    0x0000f4d0       0xd5 /opt/altera/13.0sp1/nios2eds/bin/gnu/H-i686-pc-linux-gnu/bin/../lib/gcc/nios2-elf/4.1.2/../../../../nios2-elf/lib/mno-hw-mul/libc.a(lib_a-s_isnand.o)
 .debug_info    0x0000f5a5      0x962 /opt/altera/13.0sp1/nios2eds/bin/gnu/H-i686-pc-linux-gnu/bin/../lib/gcc/nios2-elf/4.1.2/../../../../nios2-elf/lib/mno-hw-mul/libc.a(lib_a-sbrkr.o)
 .debug_info    0x0000ff07      0xaac /opt/altera/13.0sp1/nios2eds/bin/gnu/H-i686-pc-linux-gnu/bin/../lib/gcc/nios2-elf/4.1.2/../../../../nios2-elf/lib/mno-hw-mul/libc.a(lib_a-stdio.o)
 .debug_info    0x000109b3       0xdd /opt/altera/13.0sp1/nios2eds/bin/gnu/H-i686-pc-linux-gnu/bin/../lib/gcc/nios2-elf/4.1.2/../../../../nios2-elf/lib/mno-hw-mul/libc.a(lib_a-strcmp.o)
 .debug_info    0x00010a90      0x9ae /opt/altera/13.0sp1/nios2eds/bin/gnu/H-i686-pc-linux-gnu/bin/../lib/gcc/nios2-elf/4.1.2/../../../../nios2-elf/lib/mno-hw-mul/libc.a(lib_a-wbuf.o)
 .debug_info    0x0001143e      0x993 /opt/altera/13.0sp1/nios2eds/bin/gnu/H-i686-pc-linux-gnu/bin/../lib/gcc/nios2-elf/4.1.2/../../../../nios2-elf/lib/mno-hw-mul/libc.a(lib_a-writer.o)
 .debug_info    0x00011dd1      0xa1b /opt/altera/13.0sp1/nios2eds/bin/gnu/H-i686-pc-linux-gnu/bin/../lib/gcc/nios2-elf/4.1.2/../../../../nios2-elf/lib/mno-hw-mul/libc.a(lib_a-callocr.o)
 .debug_info    0x000127ec      0x958 /opt/altera/13.0sp1/nios2eds/bin/gnu/H-i686-pc-linux-gnu/bin/../lib/gcc/nios2-elf/4.1.2/../../../../nios2-elf/lib/mno-hw-mul/libc.a(lib_a-closer.o)
 .debug_info    0x00013144      0x994 /opt/altera/13.0sp1/nios2eds/bin/gnu/H-i686-pc-linux-gnu/bin/../lib/gcc/nios2-elf/4.1.2/../../../../nios2-elf/lib/mno-hw-mul/libc.a(lib_a-fclose.o)
 .debug_info    0x00013ad8      0xafc /opt/altera/13.0sp1/nios2eds/bin/gnu/H-i686-pc-linux-gnu/bin/../lib/gcc/nios2-elf/4.1.2/../../../../nios2-elf/lib/mno-hw-mul/libc.a(lib_a-fstatr.o)
 .debug_info    0x000145d4       0x8c /opt/altera/13.0sp1/nios2eds/bin/gnu/H-i686-pc-linux-gnu/bin/../lib/gcc/nios2-elf/4.1.2/../../../../nios2-elf/lib/mno-hw-mul/libc.a(lib_a-int_errno.o)
 .debug_info    0x00014660      0x958 /opt/altera/13.0sp1/nios2eds/bin/gnu/H-i686-pc-linux-gnu/bin/../lib/gcc/nios2-elf/4.1.2/../../../../nios2-elf/lib/mno-hw-mul/libc.a(lib_a-isattyr.o)
 .debug_info    0x00014fb8      0x981 /opt/altera/13.0sp1/nios2eds/bin/gnu/H-i686-pc-linux-gnu/bin/../lib/gcc/nios2-elf/4.1.2/../../../../nios2-elf/lib/mno-hw-mul/libc.a(lib_a-lseekr.o)
 .debug_info    0x00015939      0x98c /opt/altera/13.0sp1/nios2eds/bin/gnu/H-i686-pc-linux-gnu/bin/../lib/gcc/nios2-elf/4.1.2/../../../../nios2-elf/lib/mno-hw-mul/libc.a(lib_a-readr.o)
 .debug_info    0x000162c5      0x71c /opt/altera/13.0sp1/nios2eds/bin/gnu/H-i686-pc-linux-gnu/bin/../lib/gcc/nios2-elf/4.1.2/mno-hw-mul/libgcc.a(_udivdi3.o)
 .debug_info    0x000169e1      0x749 /opt/altera/13.0sp1/nios2eds/bin/gnu/H-i686-pc-linux-gnu/bin/../lib/gcc/nios2-elf/4.1.2/mno-hw-mul/libgcc.a(_umoddi3.o)
 .debug_info    0x0001712a      0x493 /opt/altera/13.0sp1/nios2eds/bin/gnu/H-i686-pc-linux-gnu/bin/../lib/gcc/nios2-elf/4.1.2/mno-hw-mul/libgcc.a(_addsub_df.o)
 .debug_info    0x000175bd      0x488 /opt/altera/13.0sp1/nios2eds/bin/gnu/H-i686-pc-linux-gnu/bin/../lib/gcc/nios2-elf/4.1.2/mno-hw-mul/libgcc.a(_mul_df.o)
 .debug_info    0x00017a45      0x29d /opt/altera/13.0sp1/nios2eds/bin/gnu/H-i686-pc-linux-gnu/bin/../lib/gcc/nios2-elf/4.1.2/mno-hw-mul/libgcc.a(_eq_df.o)
 .debug_info    0x00017ce2      0x29d /opt/altera/13.0sp1/nios2eds/bin/gnu/H-i686-pc-linux-gnu/bin/../lib/gcc/nios2-elf/4.1.2/mno-hw-mul/libgcc.a(_ne_df.o)
 .debug_info    0x00017f7f      0x29d /opt/altera/13.0sp1/nios2eds/bin/gnu/H-i686-pc-linux-gnu/bin/../lib/gcc/nios2-elf/4.1.2/mno-hw-mul/libgcc.a(_gt_df.o)
 .debug_info    0x0001821c      0x29d /opt/altera/13.0sp1/nios2eds/bin/gnu/H-i686-pc-linux-gnu/bin/../lib/gcc/nios2-elf/4.1.2/mno-hw-mul/libgcc.a(_ge_df.o)
 .debug_info    0x000184b9      0x29d /opt/altera/13.0sp1/nios2eds/bin/gnu/H-i686-pc-linux-gnu/bin/../lib/gcc/nios2-elf/4.1.2/mno-hw-mul/libgcc.a(_lt_df.o)
 .debug_info    0x00018756      0x218 /opt/altera/13.0sp1/nios2eds/bin/gnu/H-i686-pc-linux-gnu/bin/../lib/gcc/nios2-elf/4.1.2/mno-hw-mul/libgcc.a(_si_to_df.o)
 .debug_info    0x0001896e      0x2cd /opt/altera/13.0sp1/nios2eds/bin/gnu/H-i686-pc-linux-gnu/bin/../lib/gcc/nios2-elf/4.1.2/mno-hw-mul/libgcc.a(_df_to_si.o)
 .debug_info    0x00018c3b      0x210 /opt/altera/13.0sp1/nios2eds/bin/gnu/H-i686-pc-linux-gnu/bin/../lib/gcc/nios2-elf/4.1.2/mno-hw-mul/libgcc.a(_muldi3.o)
 .debug_info    0x00018e4b      0x21b /opt/altera/13.0sp1/nios2eds/bin/gnu/H-i686-pc-linux-gnu/bin/../lib/gcc/nios2-elf/4.1.2/mno-hw-mul/libgcc.a(_fpcmp_parts_df.o)
 .debug_info    0x00019066      0x2de ../../bsp/mpsoc_hello_ucosii_q2//libucosii_bsp.a(alt_alarm_start.o)
 .debug_info    0x00019344      0x3a1 ../../bsp/mpsoc_hello_ucosii_q2//libucosii_bsp.a(alt_close.o)
 .debug_info    0x000196e5      0x5f1 ../../bsp/mpsoc_hello_ucosii_q2//libucosii_bsp.a(alt_dev.o)
 .debug_info    0x00019cd6       0xab ../../bsp/mpsoc_hello_ucosii_q2//libucosii_bsp.a(alt_errno.o)
 .debug_info    0x00019d81      0x52f ../../bsp/mpsoc_hello_ucosii_q2//libucosii_bsp.a(alt_fstat.o)
 .debug_info    0x0001a2b0      0x530 ../../bsp/mpsoc_hello_ucosii_q2//libucosii_bsp.a(alt_isatty.o)
 .debug_info    0x0001a7e0      0x12e ../../bsp/mpsoc_hello_ucosii_q2//libucosii_bsp.a(alt_load.o)
 .debug_info    0x0001a90e      0x3da ../../bsp/mpsoc_hello_ucosii_q2//libucosii_bsp.a(alt_lseek.o)
 .debug_info    0x0001ace8      0x299 ../../bsp/mpsoc_hello_ucosii_q2//libucosii_bsp.a(alt_main.o)
 .debug_info    0x0001af81      0x553 ../../bsp/mpsoc_hello_ucosii_q2//libucosii_bsp.a(alt_read.o)
 .debug_info    0x0001b4d4      0x33d ../../bsp/mpsoc_hello_ucosii_q2//libucosii_bsp.a(alt_release_fd.o)
 .debug_info    0x0001b811      0x1cf ../../bsp/mpsoc_hello_ucosii_q2//libucosii_bsp.a(alt_sbrk.o)
 .debug_info    0x0001b9e0      0x2c9 ../../bsp/mpsoc_hello_ucosii_q2//libucosii_bsp.a(alt_tick.o)
 .debug_info    0x0001bca9      0x55a ../../bsp/mpsoc_hello_ucosii_q2//libucosii_bsp.a(alt_write.o)
 .debug_info    0x0001c203      0xd75 ../../bsp/mpsoc_hello_ucosii_q2//libucosii_bsp.a(alt_env_lock.o)
 .debug_info    0x0001cf78      0xea8 ../../bsp/mpsoc_hello_ucosii_q2//libucosii_bsp.a(alt_malloc_lock.o)
 .debug_info    0x0001de20     0x1997 ../../bsp/mpsoc_hello_ucosii_q2//libucosii_bsp.a(os_core.o)
 .debug_info    0x0001f7b7      0xd75 ../../bsp/mpsoc_hello_ucosii_q2//libucosii_bsp.a(os_dbg.o)
 .debug_info    0x0002052c      0xeda ../../bsp/mpsoc_hello_ucosii_q2//libucosii_bsp.a(os_flag.o)
 .debug_info    0x00021406      0x691 ../../bsp/mpsoc_hello_ucosii_q2//libucosii_bsp.a(os_mem.o)
 .debug_info    0x00021a97      0xde6 ../../bsp/mpsoc_hello_ucosii_q2//libucosii_bsp.a(os_q.o)
 .debug_info    0x0002287d      0xa3b ../../bsp/mpsoc_hello_ucosii_q2//libucosii_bsp.a(os_sem.o)
 .debug_info    0x000232b8     0x10e6 ../../bsp/mpsoc_hello_ucosii_q2//libucosii_bsp.a(os_task.o)
 .debug_info    0x0002439e      0x731 ../../bsp/mpsoc_hello_ucosii_q2//libucosii_bsp.a(os_time.o)
 .debug_info    0x00024acf      0x8ae ../../bsp/mpsoc_hello_ucosii_q2//libucosii_bsp.a(os_tmr.o)
 .debug_info    0x0002537d      0x862 ../../bsp/mpsoc_hello_ucosii_q2//libucosii_bsp.a(alt_sys_init.o)
 .debug_info    0x00025bdf      0x6ff ../../bsp/mpsoc_hello_ucosii_q2//libucosii_bsp.a(altera_avalon_jtag_uart_fd.o)
 .debug_info    0x000262de      0x6cd ../../bsp/mpsoc_hello_ucosii_q2//libucosii_bsp.a(altera_avalon_jtag_uart_init.o)
 .debug_info    0x000269ab      0x428 ../../bsp/mpsoc_hello_ucosii_q2//libucosii_bsp.a(altera_avalon_jtag_uart_ioctl.o)
 .debug_info    0x00026dd3      0x5c3 ../../bsp/mpsoc_hello_ucosii_q2//libucosii_bsp.a(altera_avalon_jtag_uart_read.o)
 .debug_info    0x00027396      0x5b2 ../../bsp/mpsoc_hello_ucosii_q2//libucosii_bsp.a(altera_avalon_jtag_uart_write.o)
 .debug_info    0x00027948      0x514 ../../bsp/mpsoc_hello_ucosii_q2//libucosii_bsp.a(altera_avalon_mutex.o)
 .debug_info    0x00027e5c      0x247 ../../bsp/mpsoc_hello_ucosii_q2//libucosii_bsp.a(altera_avalon_timer_sc.o)
 .debug_info    0x000280a3       0x8d ../../bsp/mpsoc_hello_ucosii_q2//libucosii_bsp.a(alt_dcache_flush_all.o)
 .debug_info    0x00028130      0x1b7 ../../bsp/mpsoc_hello_ucosii_q2//libucosii_bsp.a(alt_dev_llist_insert.o)
 .debug_info    0x000282e7       0x8d ../../bsp/mpsoc_hello_ucosii_q2//libucosii_bsp.a(alt_do_ctors.o)
 .debug_info    0x00028374       0x8d ../../bsp/mpsoc_hello_ucosii_q2//libucosii_bsp.a(alt_do_dtors.o)
 .debug_info    0x00028401      0x362 ../../bsp/mpsoc_hello_ucosii_q2//libucosii_bsp.a(alt_find_dev.o)
 .debug_info    0x00028763       0x8d ../../bsp/mpsoc_hello_ucosii_q2//libucosii_bsp.a(alt_icache_flush_all.o)
 .debug_info    0x000287f0      0x548 ../../bsp/mpsoc_hello_ucosii_q2//libucosii_bsp.a(alt_io_redirect.o)
 .debug_info    0x00028d38      0x321 ../../bsp/mpsoc_hello_ucosii_q2//libucosii_bsp.a(alt_irq_register.o)
 .debug_info    0x00029059       0x92 ../../bsp/mpsoc_hello_ucosii_q2//libucosii_bsp.a(alt_irq_vars.o)
 .debug_info    0x000290eb      0x453 ../../bsp/mpsoc_hello_ucosii_q2//libucosii_bsp.a(alt_open.o)
 .debug_info    0x0002953e       0xb7 ../../bsp/mpsoc_hello_ucosii_q2//libucosii_bsp.a(altera_nios2_qsys_irq.o)
 .debug_info    0x000295f5       0x7a ../../bsp/mpsoc_hello_ucosii_q2//libucosii_bsp.a(os_cpu_a.o)
 .debug_info    0x0002966f      0xe0f ../../bsp/mpsoc_hello_ucosii_q2//libucosii_bsp.a(os_cpu_c.o)
 .debug_info    0x0002a47e      0x360 ../../bsp/mpsoc_hello_ucosii_q2//libucosii_bsp.a(alt_find_file.o)
 .debug_info    0x0002a7de      0x494 ../../bsp/mpsoc_hello_ucosii_q2//libucosii_bsp.a(alt_get_fd.o)
 .debug_info    0x0002ac72       0x7b ../../bsp/mpsoc_hello_ucosii_q2//libucosii_bsp.a(alt_irq_entry.o)
 .debug_info    0x0002aced      0x1cb ../../bsp/mpsoc_hello_ucosii_q2//libucosii_bsp.a(alt_irq_handler.o)
 .debug_info    0x0002aeb8       0x81 ../../bsp/mpsoc_hello_ucosii_q2//libucosii_bsp.a(alt_exception_entry.o)
 .debug_info    0x0002af39      0x181 /opt/altera/13.0sp1/nios2eds/bin/gnu/H-i686-pc-linux-gnu/bin/../lib/gcc/nios2-elf/4.1.2/../../../../nios2-elf/lib/mno-hw-mul/libc.a(lib_a-atexit.o)
 .debug_info    0x0002b0ba      0x93f /opt/altera/13.0sp1/nios2eds/bin/gnu/H-i686-pc-linux-gnu/bin/../lib/gcc/nios2-elf/4.1.2/../../../../nios2-elf/lib/mno-hw-mul/libc.a(lib_a-exit.o)
 .debug_info    0x0002b9f9      0x115 /opt/altera/13.0sp1/nios2eds/bin/gnu/H-i686-pc-linux-gnu/bin/../lib/gcc/nios2-elf/4.1.2/../../../../nios2-elf/lib/mno-hw-mul/libc.a(lib_a-memcmp.o)
 .debug_info    0x0002bb0e      0x99c /opt/altera/13.0sp1/nios2eds/bin/gnu/H-i686-pc-linux-gnu/bin/../lib/gcc/nios2-elf/4.1.2/../../../../nios2-elf/lib/mno-hw-mul/libc.a(lib_a-__atexit.o)
 .debug_info    0x0002c4aa      0x9e2 /opt/altera/13.0sp1/nios2eds/bin/gnu/H-i686-pc-linux-gnu/bin/../lib/gcc/nios2-elf/4.1.2/../../../../nios2-elf/lib/mno-hw-mul/libc.a(lib_a-__call_atexit.o)
 .debug_info    0x0002ce8c       0xce /opt/altera/13.0sp1/nios2eds/bin/gnu/H-i686-pc-linux-gnu/bin/../lib/gcc/nios2-elf/4.1.2/mno-hw-mul/libgcc.a(_fixunsdfsi.o)
 .debug_info    0x0002cf5a      0x151 ../../bsp/mpsoc_hello_ucosii_q2//libucosii_bsp.a(alt_exit.o)

.debug_abbrev   0x00000000     0xa3b8
 *(.debug_abbrev)
 .debug_abbrev  0x00000000       0x12 ../../bsp/mpsoc_hello_ucosii_q2//obj/HAL/src/crt0.o
 .debug_abbrev  0x00000012      0x1e5 obj/default/src/hello_ucosii.o
 .debug_abbrev  0x000001f7       0xba obj/default/src/imageProcessing.o
 .debug_abbrev  0x000002b1      0x1e3 /opt/altera/13.0sp1/nios2eds/bin/gnu/H-i686-pc-linux-gnu/bin/../lib/gcc/nios2-elf/4.1.2/mno-hw-mul/libgcc.a(_div_df.o)
 .debug_abbrev  0x00000494       0xba /opt/altera/13.0sp1/nios2eds/bin/gnu/H-i686-pc-linux-gnu/bin/../lib/gcc/nios2-elf/4.1.2/mno-hw-mul/libgcc.a(_thenan_df.o)
 .debug_abbrev  0x0000054e      0x155 /opt/altera/13.0sp1/nios2eds/bin/gnu/H-i686-pc-linux-gnu/bin/../lib/gcc/nios2-elf/4.1.2/mno-hw-mul/libgcc.a(_usi_to_df.o)
 .debug_abbrev  0x000006a3       0xe0 /opt/altera/13.0sp1/nios2eds/bin/gnu/H-i686-pc-linux-gnu/bin/../lib/gcc/nios2-elf/4.1.2/mno-hw-mul/libgcc.a(lib2-divmod.o)
 .debug_abbrev  0x00000783       0x7b /opt/altera/13.0sp1/nios2eds/bin/gnu/H-i686-pc-linux-gnu/bin/../lib/gcc/nios2-elf/4.1.2/mno-hw-mul/libgcc.a(lib2-mul.o)
 .debug_abbrev  0x000007fe       0xb9 /opt/altera/13.0sp1/nios2eds/bin/gnu/H-i686-pc-linux-gnu/bin/../lib/gcc/nios2-elf/4.1.2/mno-hw-mul/libgcc.a(_clzsi2.o)
 .debug_abbrev  0x000008b7      0x1b1 /opt/altera/13.0sp1/nios2eds/bin/gnu/H-i686-pc-linux-gnu/bin/../lib/gcc/nios2-elf/4.1.2/mno-hw-mul/libgcc.a(_pack_df.o)
 .debug_abbrev  0x00000a68      0x149 /opt/altera/13.0sp1/nios2eds/bin/gnu/H-i686-pc-linux-gnu/bin/../lib/gcc/nios2-elf/4.1.2/mno-hw-mul/libgcc.a(_unpack_df.o)
 .debug_abbrev  0x00000bb1       0x61 /opt/altera/13.0sp1/nios2eds/bin/gnu/H-i686-pc-linux-gnu/bin/../lib/gcc/nios2-elf/4.1.2/mno-hw-mul/libgcc.a(_clz.o)
 .debug_abbrev  0x00000c12      0x191 /opt/altera/13.0sp1/nios2eds/bin/gnu/H-i686-pc-linux-gnu/bin/../lib/gcc/nios2-elf/4.1.2/../../../../nios2-elf/lib/mno-hw-mul/libc.a(lib_a-printf.o)
 .debug_abbrev  0x00000da3      0x170 /opt/altera/13.0sp1/nios2eds/bin/gnu/H-i686-pc-linux-gnu/bin/../lib/gcc/nios2-elf/4.1.2/../../../../nios2-elf/lib/mno-hw-mul/libc.a(lib_a-putchar.o)
 .debug_abbrev  0x00000f13      0x1ac /opt/altera/13.0sp1/nios2eds/bin/gnu/H-i686-pc-linux-gnu/bin/../lib/gcc/nios2-elf/4.1.2/../../../../nios2-elf/lib/mno-hw-mul/libc.a(lib_a-puts.o)
 .debug_abbrev  0x000010bf       0x8b /opt/altera/13.0sp1/nios2eds/bin/gnu/H-i686-pc-linux-gnu/bin/../lib/gcc/nios2-elf/4.1.2/../../../../nios2-elf/lib/mno-hw-mul/libc.a(lib_a-strlen.o)
 .debug_abbrev  0x0000114a      0x30a /opt/altera/13.0sp1/nios2eds/bin/gnu/H-i686-pc-linux-gnu/bin/../lib/gcc/nios2-elf/4.1.2/../../../../nios2-elf/lib/mno-hw-mul/libc.a(lib_a-vfprintf.o)
 .debug_abbrev  0x00001454      0x170 /opt/altera/13.0sp1/nios2eds/bin/gnu/H-i686-pc-linux-gnu/bin/../lib/gcc/nios2-elf/4.1.2/../../../../nios2-elf/lib/mno-hw-mul/libc.a(lib_a-wsetup.o)
 .debug_abbrev  0x000015c4      0x232 /opt/altera/13.0sp1/nios2eds/bin/gnu/H-i686-pc-linux-gnu/bin/../lib/gcc/nios2-elf/4.1.2/../../../../nios2-elf/lib/mno-hw-mul/libc.a(lib_a-dtoa.o)
 .debug_abbrev  0x000017f6      0x1c6 /opt/altera/13.0sp1/nios2eds/bin/gnu/H-i686-pc-linux-gnu/bin/../lib/gcc/nios2-elf/4.1.2/../../../../nios2-elf/lib/mno-hw-mul/libc.a(lib_a-fflush.o)
 .debug_abbrev  0x000019bc      0x24c /opt/altera/13.0sp1/nios2eds/bin/gnu/H-i686-pc-linux-gnu/bin/../lib/gcc/nios2-elf/4.1.2/../../../../nios2-elf/lib/mno-hw-mul/libc.a(lib_a-findfp.o)
 .debug_abbrev  0x00001c08      0x1d9 /opt/altera/13.0sp1/nios2eds/bin/gnu/H-i686-pc-linux-gnu/bin/../lib/gcc/nios2-elf/4.1.2/../../../../nios2-elf/lib/mno-hw-mul/libc.a(lib_a-freer.o)
 .debug_abbrev  0x00001de1      0x1a3 /opt/altera/13.0sp1/nios2eds/bin/gnu/H-i686-pc-linux-gnu/bin/../lib/gcc/nios2-elf/4.1.2/../../../../nios2-elf/lib/mno-hw-mul/libc.a(lib_a-fvwrite.o)
 .debug_abbrev  0x00001f84      0x1e3 /opt/altera/13.0sp1/nios2eds/bin/gnu/H-i686-pc-linux-gnu/bin/../lib/gcc/nios2-elf/4.1.2/../../../../nios2-elf/lib/mno-hw-mul/libc.a(lib_a-fwalk.o)
 .debug_abbrev  0x00002167      0x157 /opt/altera/13.0sp1/nios2eds/bin/gnu/H-i686-pc-linux-gnu/bin/../lib/gcc/nios2-elf/4.1.2/../../../../nios2-elf/lib/mno-hw-mul/libc.a(lib_a-impure.o)
 .debug_abbrev  0x000022be      0x1ed /opt/altera/13.0sp1/nios2eds/bin/gnu/H-i686-pc-linux-gnu/bin/../lib/gcc/nios2-elf/4.1.2/../../../../nios2-elf/lib/mno-hw-mul/libc.a(lib_a-locale.o)
 .debug_abbrev  0x000024ab      0x197 /opt/altera/13.0sp1/nios2eds/bin/gnu/H-i686-pc-linux-gnu/bin/../lib/gcc/nios2-elf/4.1.2/../../../../nios2-elf/lib/mno-hw-mul/libc.a(lib_a-makebuf.o)
 .debug_abbrev  0x00002642      0x216 /opt/altera/13.0sp1/nios2eds/bin/gnu/H-i686-pc-linux-gnu/bin/../lib/gcc/nios2-elf/4.1.2/../../../../nios2-elf/lib/mno-hw-mul/libc.a(lib_a-mallocr.o)
 .debug_abbrev  0x00002858       0xb5 /opt/altera/13.0sp1/nios2eds/bin/gnu/H-i686-pc-linux-gnu/bin/../lib/gcc/nios2-elf/4.1.2/../../../../nios2-elf/lib/mno-hw-mul/libc.a(lib_a-memchr.o)
 .debug_abbrev  0x0000290d       0xb5 /opt/altera/13.0sp1/nios2eds/bin/gnu/H-i686-pc-linux-gnu/bin/../lib/gcc/nios2-elf/4.1.2/../../../../nios2-elf/lib/mno-hw-mul/libc.a(lib_a-memcpy.o)
 .debug_abbrev  0x000029c2       0xb5 /opt/altera/13.0sp1/nios2eds/bin/gnu/H-i686-pc-linux-gnu/bin/../lib/gcc/nios2-elf/4.1.2/../../../../nios2-elf/lib/mno-hw-mul/libc.a(lib_a-memmove.o)
 .debug_abbrev  0x00002a77       0xb8 /opt/altera/13.0sp1/nios2eds/bin/gnu/H-i686-pc-linux-gnu/bin/../lib/gcc/nios2-elf/4.1.2/../../../../nios2-elf/lib/mno-hw-mul/libc.a(lib_a-memset.o)
 .debug_abbrev  0x00002b2f      0x297 /opt/altera/13.0sp1/nios2eds/bin/gnu/H-i686-pc-linux-gnu/bin/../lib/gcc/nios2-elf/4.1.2/../../../../nios2-elf/lib/mno-hw-mul/libc.a(lib_a-mprec.o)
 .debug_abbrev  0x00002dc6      0x17f /opt/altera/13.0sp1/nios2eds/bin/gnu/H-i686-pc-linux-gnu/bin/../lib/gcc/nios2-elf/4.1.2/../../../../nios2-elf/lib/mno-hw-mul/libc.a(lib_a-putc.o)
 .debug_abbrev  0x00002f45      0x1c3 /opt/altera/13.0sp1/nios2eds/bin/gnu/H-i686-pc-linux-gnu/bin/../lib/gcc/nios2-elf/4.1.2/../../../../nios2-elf/lib/mno-hw-mul/libc.a(lib_a-reallocr.o)
 .debug_abbrev  0x00003108       0x79 /opt/altera/13.0sp1/nios2eds/bin/gnu/H-i686-pc-linux-gnu/bin/../lib/gcc/nios2-elf/4.1.2/../../../../nios2-elf/lib/mno-hw-mul/libc.a(lib_a-s_isinfd.o)
 .debug_abbrev  0x00003181       0x79 /opt/altera/13.0sp1/nios2eds/bin/gnu/H-i686-pc-linux-gnu/bin/../lib/gcc/nios2-elf/4.1.2/../../../../nios2-elf/lib/mno-hw-mul/libc.a(lib_a-s_isnand.o)
 .debug_abbrev  0x000031fa      0x18c /opt/altera/13.0sp1/nios2eds/bin/gnu/H-i686-pc-linux-gnu/bin/../lib/gcc/nios2-elf/4.1.2/../../../../nios2-elf/lib/mno-hw-mul/libc.a(lib_a-sbrkr.o)
 .debug_abbrev  0x00003386      0x1c9 /opt/altera/13.0sp1/nios2eds/bin/gnu/H-i686-pc-linux-gnu/bin/../lib/gcc/nios2-elf/4.1.2/../../../../nios2-elf/lib/mno-hw-mul/libc.a(lib_a-stdio.o)
 .debug_abbrev  0x0000354f       0x80 /opt/altera/13.0sp1/nios2eds/bin/gnu/H-i686-pc-linux-gnu/bin/../lib/gcc/nios2-elf/4.1.2/../../../../nios2-elf/lib/mno-hw-mul/libc.a(lib_a-strcmp.o)
 .debug_abbrev  0x000035cf      0x198 /opt/altera/13.0sp1/nios2eds/bin/gnu/H-i686-pc-linux-gnu/bin/../lib/gcc/nios2-elf/4.1.2/../../../../nios2-elf/lib/mno-hw-mul/libc.a(lib_a-wbuf.o)
 .debug_abbrev  0x00003767      0x184 /opt/altera/13.0sp1/nios2eds/bin/gnu/H-i686-pc-linux-gnu/bin/../lib/gcc/nios2-elf/4.1.2/../../../../nios2-elf/lib/mno-hw-mul/libc.a(lib_a-writer.o)
 .debug_abbrev  0x000038eb      0x1b8 /opt/altera/13.0sp1/nios2eds/bin/gnu/H-i686-pc-linux-gnu/bin/../lib/gcc/nios2-elf/4.1.2/../../../../nios2-elf/lib/mno-hw-mul/libc.a(lib_a-callocr.o)
 .debug_abbrev  0x00003aa3      0x17f /opt/altera/13.0sp1/nios2eds/bin/gnu/H-i686-pc-linux-gnu/bin/../lib/gcc/nios2-elf/4.1.2/../../../../nios2-elf/lib/mno-hw-mul/libc.a(lib_a-closer.o)
 .debug_abbrev  0x00003c22      0x1a7 /opt/altera/13.0sp1/nios2eds/bin/gnu/H-i686-pc-linux-gnu/bin/../lib/gcc/nios2-elf/4.1.2/../../../../nios2-elf/lib/mno-hw-mul/libc.a(lib_a-fclose.o)
 .debug_abbrev  0x00003dc9      0x18e /opt/altera/13.0sp1/nios2eds/bin/gnu/H-i686-pc-linux-gnu/bin/../lib/gcc/nios2-elf/4.1.2/../../../../nios2-elf/lib/mno-hw-mul/libc.a(lib_a-fstatr.o)
 .debug_abbrev  0x00003f57       0x3b /opt/altera/13.0sp1/nios2eds/bin/gnu/H-i686-pc-linux-gnu/bin/../lib/gcc/nios2-elf/4.1.2/../../../../nios2-elf/lib/mno-hw-mul/libc.a(lib_a-int_errno.o)
 .debug_abbrev  0x00003f92      0x17f /opt/altera/13.0sp1/nios2eds/bin/gnu/H-i686-pc-linux-gnu/bin/../lib/gcc/nios2-elf/4.1.2/../../../../nios2-elf/lib/mno-hw-mul/libc.a(lib_a-isattyr.o)
 .debug_abbrev  0x00004111      0x18e /opt/altera/13.0sp1/nios2eds/bin/gnu/H-i686-pc-linux-gnu/bin/../lib/gcc/nios2-elf/4.1.2/../../../../nios2-elf/lib/mno-hw-mul/libc.a(lib_a-lseekr.o)
 .debug_abbrev  0x0000429f      0x17f /opt/altera/13.0sp1/nios2eds/bin/gnu/H-i686-pc-linux-gnu/bin/../lib/gcc/nios2-elf/4.1.2/../../../../nios2-elf/lib/mno-hw-mul/libc.a(lib_a-readr.o)
 .debug_abbrev  0x0000441e      0x16b /opt/altera/13.0sp1/nios2eds/bin/gnu/H-i686-pc-linux-gnu/bin/../lib/gcc/nios2-elf/4.1.2/mno-hw-mul/libgcc.a(_udivdi3.o)
 .debug_abbrev  0x00004589      0x18e /opt/altera/13.0sp1/nios2eds/bin/gnu/H-i686-pc-linux-gnu/bin/../lib/gcc/nios2-elf/4.1.2/mno-hw-mul/libgcc.a(_umoddi3.o)
 .debug_abbrev  0x00004717      0x1d2 /opt/altera/13.0sp1/nios2eds/bin/gnu/H-i686-pc-linux-gnu/bin/../lib/gcc/nios2-elf/4.1.2/mno-hw-mul/libgcc.a(_addsub_df.o)
 .debug_abbrev  0x000048e9      0x204 /opt/altera/13.0sp1/nios2eds/bin/gnu/H-i686-pc-linux-gnu/bin/../lib/gcc/nios2-elf/4.1.2/mno-hw-mul/libgcc.a(_mul_df.o)
 .debug_abbrev  0x00004aed      0x151 /opt/altera/13.0sp1/nios2eds/bin/gnu/H-i686-pc-linux-gnu/bin/../lib/gcc/nios2-elf/4.1.2/mno-hw-mul/libgcc.a(_eq_df.o)
 .debug_abbrev  0x00004c3e      0x151 /opt/altera/13.0sp1/nios2eds/bin/gnu/H-i686-pc-linux-gnu/bin/../lib/gcc/nios2-elf/4.1.2/mno-hw-mul/libgcc.a(_ne_df.o)
 .debug_abbrev  0x00004d8f      0x151 /opt/altera/13.0sp1/nios2eds/bin/gnu/H-i686-pc-linux-gnu/bin/../lib/gcc/nios2-elf/4.1.2/mno-hw-mul/libgcc.a(_gt_df.o)
 .debug_abbrev  0x00004ee0      0x151 /opt/altera/13.0sp1/nios2eds/bin/gnu/H-i686-pc-linux-gnu/bin/../lib/gcc/nios2-elf/4.1.2/mno-hw-mul/libgcc.a(_ge_df.o)
 .debug_abbrev  0x00005031      0x151 /opt/altera/13.0sp1/nios2eds/bin/gnu/H-i686-pc-linux-gnu/bin/../lib/gcc/nios2-elf/4.1.2/mno-hw-mul/libgcc.a(_lt_df.o)
 .debug_abbrev  0x00005182      0x13f /opt/altera/13.0sp1/nios2eds/bin/gnu/H-i686-pc-linux-gnu/bin/../lib/gcc/nios2-elf/4.1.2/mno-hw-mul/libgcc.a(_si_to_df.o)
 .debug_abbrev  0x000052c1      0x176 /opt/altera/13.0sp1/nios2eds/bin/gnu/H-i686-pc-linux-gnu/bin/../lib/gcc/nios2-elf/4.1.2/mno-hw-mul/libgcc.a(_df_to_si.o)
 .debug_abbrev  0x00005437       0xfb /opt/altera/13.0sp1/nios2eds/bin/gnu/H-i686-pc-linux-gnu/bin/../lib/gcc/nios2-elf/4.1.2/mno-hw-mul/libgcc.a(_muldi3.o)
 .debug_abbrev  0x00005532      0x132 /opt/altera/13.0sp1/nios2eds/bin/gnu/H-i686-pc-linux-gnu/bin/../lib/gcc/nios2-elf/4.1.2/mno-hw-mul/libgcc.a(_fpcmp_parts_df.o)
 .debug_abbrev  0x00005664      0x179 ../../bsp/mpsoc_hello_ucosii_q2//libucosii_bsp.a(alt_alarm_start.o)
 .debug_abbrev  0x000057dd      0x120 ../../bsp/mpsoc_hello_ucosii_q2//libucosii_bsp.a(alt_close.o)
 .debug_abbrev  0x000058fd      0x119 ../../bsp/mpsoc_hello_ucosii_q2//libucosii_bsp.a(alt_dev.o)
 .debug_abbrev  0x00005a16       0x5e ../../bsp/mpsoc_hello_ucosii_q2//libucosii_bsp.a(alt_errno.o)
 .debug_abbrev  0x00005a74      0x12b ../../bsp/mpsoc_hello_ucosii_q2//libucosii_bsp.a(alt_fstat.o)
 .debug_abbrev  0x00005b9f      0x12b ../../bsp/mpsoc_hello_ucosii_q2//libucosii_bsp.a(alt_isatty.o)
 .debug_abbrev  0x00005cca       0x97 ../../bsp/mpsoc_hello_ucosii_q2//libucosii_bsp.a(alt_load.o)
 .debug_abbrev  0x00005d61      0x12b ../../bsp/mpsoc_hello_ucosii_q2//libucosii_bsp.a(alt_lseek.o)
 .debug_abbrev  0x00005e8c      0x132 ../../bsp/mpsoc_hello_ucosii_q2//libucosii_bsp.a(alt_main.o)
 .debug_abbrev  0x00005fbe      0x12f ../../bsp/mpsoc_hello_ucosii_q2//libucosii_bsp.a(alt_read.o)
 .debug_abbrev  0x000060ed       0xe2 ../../bsp/mpsoc_hello_ucosii_q2//libucosii_bsp.a(alt_release_fd.o)
 .debug_abbrev  0x000061cf      0x112 ../../bsp/mpsoc_hello_ucosii_q2//libucosii_bsp.a(alt_sbrk.o)
 .debug_abbrev  0x000062e1      0x170 ../../bsp/mpsoc_hello_ucosii_q2//libucosii_bsp.a(alt_tick.o)
 .debug_abbrev  0x00006451      0x134 ../../bsp/mpsoc_hello_ucosii_q2//libucosii_bsp.a(alt_write.o)
 .debug_abbrev  0x00006585      0x1ca ../../bsp/mpsoc_hello_ucosii_q2//libucosii_bsp.a(alt_env_lock.o)
 .debug_abbrev  0x0000674f      0x25f ../../bsp/mpsoc_hello_ucosii_q2//libucosii_bsp.a(alt_malloc_lock.o)
 .debug_abbrev  0x000069ae      0x379 ../../bsp/mpsoc_hello_ucosii_q2//libucosii_bsp.a(os_core.o)
 .debug_abbrev  0x00006d27      0x102 ../../bsp/mpsoc_hello_ucosii_q2//libucosii_bsp.a(os_dbg.o)
 .debug_abbrev  0x00006e29      0x297 ../../bsp/mpsoc_hello_ucosii_q2//libucosii_bsp.a(os_flag.o)
 .debug_abbrev  0x000070c0      0x25a ../../bsp/mpsoc_hello_ucosii_q2//libucosii_bsp.a(os_mem.o)
 .debug_abbrev  0x0000731a      0x2b0 ../../bsp/mpsoc_hello_ucosii_q2//libucosii_bsp.a(os_q.o)
 .debug_abbrev  0x000075ca      0x2b6 ../../bsp/mpsoc_hello_ucosii_q2//libucosii_bsp.a(os_sem.o)
 .debug_abbrev  0x00007880      0x284 ../../bsp/mpsoc_hello_ucosii_q2//libucosii_bsp.a(os_task.o)
 .debug_abbrev  0x00007b04      0x209 ../../bsp/mpsoc_hello_ucosii_q2//libucosii_bsp.a(os_time.o)
 .debug_abbrev  0x00007d0d      0x26b ../../bsp/mpsoc_hello_ucosii_q2//libucosii_bsp.a(os_tmr.o)
 .debug_abbrev  0x00007f78      0x226 ../../bsp/mpsoc_hello_ucosii_q2//libucosii_bsp.a(alt_sys_init.o)
 .debug_abbrev  0x0000819e      0x158 ../../bsp/mpsoc_hello_ucosii_q2//libucosii_bsp.a(altera_avalon_jtag_uart_fd.o)
 .debug_abbrev  0x000082f6      0x244 ../../bsp/mpsoc_hello_ucosii_q2//libucosii_bsp.a(altera_avalon_jtag_uart_init.o)
 .debug_abbrev  0x0000853a      0x151 ../../bsp/mpsoc_hello_ucosii_q2//libucosii_bsp.a(altera_avalon_jtag_uart_ioctl.o)
 .debug_abbrev  0x0000868b      0x201 ../../bsp/mpsoc_hello_ucosii_q2//libucosii_bsp.a(altera_avalon_jtag_uart_read.o)
 .debug_abbrev  0x0000888c      0x1ee ../../bsp/mpsoc_hello_ucosii_q2//libucosii_bsp.a(altera_avalon_jtag_uart_write.o)
 .debug_abbrev  0x00008a7a      0x237 ../../bsp/mpsoc_hello_ucosii_q2//libucosii_bsp.a(altera_avalon_mutex.o)
 .debug_abbrev  0x00008cb1      0x158 ../../bsp/mpsoc_hello_ucosii_q2//libucosii_bsp.a(altera_avalon_timer_sc.o)
 .debug_abbrev  0x00008e09       0x3f ../../bsp/mpsoc_hello_ucosii_q2//libucosii_bsp.a(alt_dcache_flush_all.o)
 .debug_abbrev  0x00008e48      0x117 ../../bsp/mpsoc_hello_ucosii_q2//libucosii_bsp.a(alt_dev_llist_insert.o)
 .debug_abbrev  0x00008f5f       0x76 ../../bsp/mpsoc_hello_ucosii_q2//libucosii_bsp.a(alt_do_ctors.o)
 .debug_abbrev  0x00008fd5       0x76 ../../bsp/mpsoc_hello_ucosii_q2//libucosii_bsp.a(alt_do_dtors.o)
 .debug_abbrev  0x0000904b       0xf4 ../../bsp/mpsoc_hello_ucosii_q2//libucosii_bsp.a(alt_find_dev.o)
 .debug_abbrev  0x0000913f       0x3f ../../bsp/mpsoc_hello_ucosii_q2//libucosii_bsp.a(alt_icache_flush_all.o)
 .debug_abbrev  0x0000917e      0x115 ../../bsp/mpsoc_hello_ucosii_q2//libucosii_bsp.a(alt_io_redirect.o)
 .debug_abbrev  0x00009293      0x190 ../../bsp/mpsoc_hello_ucosii_q2//libucosii_bsp.a(alt_irq_register.o)
 .debug_abbrev  0x00009423       0x44 ../../bsp/mpsoc_hello_ucosii_q2//libucosii_bsp.a(alt_irq_vars.o)
 .debug_abbrev  0x00009467      0x17e ../../bsp/mpsoc_hello_ucosii_q2//libucosii_bsp.a(alt_open.o)
 .debug_abbrev  0x000095e5       0x64 ../../bsp/mpsoc_hello_ucosii_q2//libucosii_bsp.a(altera_nios2_qsys_irq.o)
 .debug_abbrev  0x00009649       0x14 ../../bsp/mpsoc_hello_ucosii_q2//libucosii_bsp.a(os_cpu_a.o)
 .debug_abbrev  0x0000965d      0x21f ../../bsp/mpsoc_hello_ucosii_q2//libucosii_bsp.a(os_cpu_c.o)
 .debug_abbrev  0x0000987c       0xf4 ../../bsp/mpsoc_hello_ucosii_q2//libucosii_bsp.a(alt_find_file.o)
 .debug_abbrev  0x00009970      0x192 ../../bsp/mpsoc_hello_ucosii_q2//libucosii_bsp.a(alt_get_fd.o)
 .debug_abbrev  0x00009b02       0x12 ../../bsp/mpsoc_hello_ucosii_q2//libucosii_bsp.a(alt_irq_entry.o)
 .debug_abbrev  0x00009b14      0x131 ../../bsp/mpsoc_hello_ucosii_q2//libucosii_bsp.a(alt_irq_handler.o)
 .debug_abbrev  0x00009c45       0x12 ../../bsp/mpsoc_hello_ucosii_q2//libucosii_bsp.a(alt_exception_entry.o)
 .debug_abbrev  0x00009c57       0xb7 /opt/altera/13.0sp1/nios2eds/bin/gnu/H-i686-pc-linux-gnu/bin/../lib/gcc/nios2-elf/4.1.2/../../../../nios2-elf/lib/mno-hw-mul/libc.a(lib_a-atexit.o)
 .debug_abbrev  0x00009d0e      0x16e /opt/altera/13.0sp1/nios2eds/bin/gnu/H-i686-pc-linux-gnu/bin/../lib/gcc/nios2-elf/4.1.2/../../../../nios2-elf/lib/mno-hw-mul/libc.a(lib_a-exit.o)
 .debug_abbrev  0x00009e7c       0x7c /opt/altera/13.0sp1/nios2eds/bin/gnu/H-i686-pc-linux-gnu/bin/../lib/gcc/nios2-elf/4.1.2/../../../../nios2-elf/lib/mno-hw-mul/libc.a(lib_a-memcmp.o)
 .debug_abbrev  0x00009ef8      0x1ae /opt/altera/13.0sp1/nios2eds/bin/gnu/H-i686-pc-linux-gnu/bin/../lib/gcc/nios2-elf/4.1.2/../../../../nios2-elf/lib/mno-hw-mul/libc.a(lib_a-__atexit.o)
 .debug_abbrev  0x0000a0a6      0x1de /opt/altera/13.0sp1/nios2eds/bin/gnu/H-i686-pc-linux-gnu/bin/../lib/gcc/nios2-elf/4.1.2/../../../../nios2-elf/lib/mno-hw-mul/libc.a(lib_a-__call_atexit.o)
 .debug_abbrev  0x0000a284       0x5d /opt/altera/13.0sp1/nios2eds/bin/gnu/H-i686-pc-linux-gnu/bin/../lib/gcc/nios2-elf/4.1.2/mno-hw-mul/libgcc.a(_fixunsdfsi.o)
 .debug_abbrev  0x0000a2e1       0xd7 ../../bsp/mpsoc_hello_ucosii_q2//libucosii_bsp.a(alt_exit.o)

.debug_line     0x00000000    0x1cc81
 *(.debug_line)
 .debug_line    0x00000000       0x66 ../../bsp/mpsoc_hello_ucosii_q2//obj/HAL/src/crt0.o
 .debug_line    0x00000066      0x6e7 obj/default/src/hello_ucosii.o
 .debug_line    0x0000074d      0x225 obj/default/src/imageProcessing.o
 .debug_line    0x00000972      0x301 /opt/altera/13.0sp1/nios2eds/bin/gnu/H-i686-pc-linux-gnu/bin/../lib/gcc/nios2-elf/4.1.2/mno-hw-mul/libgcc.a(_div_df.o)
 .debug_line    0x00000c73       0x94 /opt/altera/13.0sp1/nios2eds/bin/gnu/H-i686-pc-linux-gnu/bin/../lib/gcc/nios2-elf/4.1.2/mno-hw-mul/libgcc.a(_thenan_df.o)
 .debug_line    0x00000d07      0x189 /opt/altera/13.0sp1/nios2eds/bin/gnu/H-i686-pc-linux-gnu/bin/../lib/gcc/nios2-elf/4.1.2/mno-hw-mul/libgcc.a(_usi_to_df.o)
 .debug_line    0x00000e90      0x2c6 /opt/altera/13.0sp1/nios2eds/bin/gnu/H-i686-pc-linux-gnu/bin/../lib/gcc/nios2-elf/4.1.2/mno-hw-mul/libgcc.a(lib2-divmod.o)
 .debug_line    0x00001156      0x191 /opt/altera/13.0sp1/nios2eds/bin/gnu/H-i686-pc-linux-gnu/bin/../lib/gcc/nios2-elf/4.1.2/mno-hw-mul/libgcc.a(lib2-mul.o)
 .debug_line    0x000012e7      0x17c /opt/altera/13.0sp1/nios2eds/bin/gnu/H-i686-pc-linux-gnu/bin/../lib/gcc/nios2-elf/4.1.2/mno-hw-mul/libgcc.a(_clzsi2.o)
 .debug_line    0x00001463      0x222 /opt/altera/13.0sp1/nios2eds/bin/gnu/H-i686-pc-linux-gnu/bin/../lib/gcc/nios2-elf/4.1.2/mno-hw-mul/libgcc.a(_pack_df.o)
 .debug_line    0x00001685      0x1e4 /opt/altera/13.0sp1/nios2eds/bin/gnu/H-i686-pc-linux-gnu/bin/../lib/gcc/nios2-elf/4.1.2/mno-hw-mul/libgcc.a(_unpack_df.o)
 .debug_line    0x00001869      0x121 /opt/altera/13.0sp1/nios2eds/bin/gnu/H-i686-pc-linux-gnu/bin/../lib/gcc/nios2-elf/4.1.2/mno-hw-mul/libgcc.a(_clz.o)
 .debug_line    0x0000198a      0x29e /opt/altera/13.0sp1/nios2eds/bin/gnu/H-i686-pc-linux-gnu/bin/../lib/gcc/nios2-elf/4.1.2/../../../../nios2-elf/lib/mno-hw-mul/libc.a(lib_a-printf.o)
 .debug_line    0x00001c28      0x267 /opt/altera/13.0sp1/nios2eds/bin/gnu/H-i686-pc-linux-gnu/bin/../lib/gcc/nios2-elf/4.1.2/../../../../nios2-elf/lib/mno-hw-mul/libc.a(lib_a-putchar.o)
 .debug_line    0x00001e8f      0x2fa /opt/altera/13.0sp1/nios2eds/bin/gnu/H-i686-pc-linux-gnu/bin/../lib/gcc/nios2-elf/4.1.2/../../../../nios2-elf/lib/mno-hw-mul/libc.a(lib_a-puts.o)
 .debug_line    0x00002189      0x270 /opt/altera/13.0sp1/nios2eds/bin/gnu/H-i686-pc-linux-gnu/bin/../lib/gcc/nios2-elf/4.1.2/../../../../nios2-elf/lib/mno-hw-mul/libc.a(lib_a-strlen.o)
 .debug_line    0x000023f9     0x110f /opt/altera/13.0sp1/nios2eds/bin/gnu/H-i686-pc-linux-gnu/bin/../lib/gcc/nios2-elf/4.1.2/../../../../nios2-elf/lib/mno-hw-mul/libc.a(lib_a-vfprintf.o)
 .debug_line    0x00003508      0x2f3 /opt/altera/13.0sp1/nios2eds/bin/gnu/H-i686-pc-linux-gnu/bin/../lib/gcc/nios2-elf/4.1.2/../../../../nios2-elf/lib/mno-hw-mul/libc.a(lib_a-wsetup.o)
 .debug_line    0x000037fb     0x1309 /opt/altera/13.0sp1/nios2eds/bin/gnu/H-i686-pc-linux-gnu/bin/../lib/gcc/nios2-elf/4.1.2/../../../../nios2-elf/lib/mno-hw-mul/libc.a(lib_a-dtoa.o)
 .debug_line    0x00004b04      0x410 /opt/altera/13.0sp1/nios2eds/bin/gnu/H-i686-pc-linux-gnu/bin/../lib/gcc/nios2-elf/4.1.2/../../../../nios2-elf/lib/mno-hw-mul/libc.a(lib_a-fflush.o)
 .debug_line    0x00004f14      0x60c /opt/altera/13.0sp1/nios2eds/bin/gnu/H-i686-pc-linux-gnu/bin/../lib/gcc/nios2-elf/4.1.2/../../../../nios2-elf/lib/mno-hw-mul/libc.a(lib_a-findfp.o)
 .debug_line    0x00005520      0x5ee /opt/altera/13.0sp1/nios2eds/bin/gnu/H-i686-pc-linux-gnu/bin/../lib/gcc/nios2-elf/4.1.2/../../../../nios2-elf/lib/mno-hw-mul/libc.a(lib_a-freer.o)
 .debug_line    0x00005b0e      0x644 /opt/altera/13.0sp1/nios2eds/bin/gnu/H-i686-pc-linux-gnu/bin/../lib/gcc/nios2-elf/4.1.2/../../../../nios2-elf/lib/mno-hw-mul/libc.a(lib_a-fvwrite.o)
 .debug_line    0x00006152      0x34d /opt/altera/13.0sp1/nios2eds/bin/gnu/H-i686-pc-linux-gnu/bin/../lib/gcc/nios2-elf/4.1.2/../../../../nios2-elf/lib/mno-hw-mul/libc.a(lib_a-fwalk.o)
 .debug_line    0x0000649f      0x230 /opt/altera/13.0sp1/nios2eds/bin/gnu/H-i686-pc-linux-gnu/bin/../lib/gcc/nios2-elf/4.1.2/../../../../nios2-elf/lib/mno-hw-mul/libc.a(lib_a-impure.o)
 .debug_line    0x000066cf      0x2cb /opt/altera/13.0sp1/nios2eds/bin/gnu/H-i686-pc-linux-gnu/bin/../lib/gcc/nios2-elf/4.1.2/../../../../nios2-elf/lib/mno-hw-mul/libc.a(lib_a-locale.o)
 .debug_line    0x0000699a      0x3c6 /opt/altera/13.0sp1/nios2eds/bin/gnu/H-i686-pc-linux-gnu/bin/../lib/gcc/nios2-elf/4.1.2/../../../../nios2-elf/lib/mno-hw-mul/libc.a(lib_a-makebuf.o)
 .debug_line    0x00006d60      0x80d /opt/altera/13.0sp1/nios2eds/bin/gnu/H-i686-pc-linux-gnu/bin/../lib/gcc/nios2-elf/4.1.2/../../../../nios2-elf/lib/mno-hw-mul/libc.a(lib_a-mallocr.o)
 .debug_line    0x0000756d      0x306 /opt/altera/13.0sp1/nios2eds/bin/gnu/H-i686-pc-linux-gnu/bin/../lib/gcc/nios2-elf/4.1.2/../../../../nios2-elf/lib/mno-hw-mul/libc.a(lib_a-memchr.o)
 .debug_line    0x00007873      0x1af /opt/altera/13.0sp1/nios2eds/bin/gnu/H-i686-pc-linux-gnu/bin/../lib/gcc/nios2-elf/4.1.2/../../../../nios2-elf/lib/mno-hw-mul/libc.a(lib_a-memcpy.o)
 .debug_line    0x00007a22      0x30d /opt/altera/13.0sp1/nios2eds/bin/gnu/H-i686-pc-linux-gnu/bin/../lib/gcc/nios2-elf/4.1.2/../../../../nios2-elf/lib/mno-hw-mul/libc.a(lib_a-memmove.o)
 .debug_line    0x00007d2f      0x304 /opt/altera/13.0sp1/nios2eds/bin/gnu/H-i686-pc-linux-gnu/bin/../lib/gcc/nios2-elf/4.1.2/../../../../nios2-elf/lib/mno-hw-mul/libc.a(lib_a-memset.o)
 .debug_line    0x00008033     0x125e /opt/altera/13.0sp1/nios2eds/bin/gnu/H-i686-pc-linux-gnu/bin/../lib/gcc/nios2-elf/4.1.2/../../../../nios2-elf/lib/mno-hw-mul/libc.a(lib_a-mprec.o)
 .debug_line    0x00009291      0x2c7 /opt/altera/13.0sp1/nios2eds/bin/gnu/H-i686-pc-linux-gnu/bin/../lib/gcc/nios2-elf/4.1.2/../../../../nios2-elf/lib/mno-hw-mul/libc.a(lib_a-putc.o)
 .debug_line    0x00009558      0x58d /opt/altera/13.0sp1/nios2eds/bin/gnu/H-i686-pc-linux-gnu/bin/../lib/gcc/nios2-elf/4.1.2/../../../../nios2-elf/lib/mno-hw-mul/libc.a(lib_a-reallocr.o)
 .debug_line    0x00009ae5      0x225 /opt/altera/13.0sp1/nios2eds/bin/gnu/H-i686-pc-linux-gnu/bin/../lib/gcc/nios2-elf/4.1.2/../../../../nios2-elf/lib/mno-hw-mul/libc.a(lib_a-s_isinfd.o)
 .debug_line    0x00009d0a      0x21d /opt/altera/13.0sp1/nios2eds/bin/gnu/H-i686-pc-linux-gnu/bin/../lib/gcc/nios2-elf/4.1.2/../../../../nios2-elf/lib/mno-hw-mul/libc.a(lib_a-s_isnand.o)
 .debug_line    0x00009f27      0x29c /opt/altera/13.0sp1/nios2eds/bin/gnu/H-i686-pc-linux-gnu/bin/../lib/gcc/nios2-elf/4.1.2/../../../../nios2-elf/lib/mno-hw-mul/libc.a(lib_a-sbrkr.o)
 .debug_line    0x0000a1c3      0x38f /opt/altera/13.0sp1/nios2eds/bin/gnu/H-i686-pc-linux-gnu/bin/../lib/gcc/nios2-elf/4.1.2/../../../../nios2-elf/lib/mno-hw-mul/libc.a(lib_a-stdio.o)
 .debug_line    0x0000a552      0x2d8 /opt/altera/13.0sp1/nios2eds/bin/gnu/H-i686-pc-linux-gnu/bin/../lib/gcc/nios2-elf/4.1.2/../../../../nios2-elf/lib/mno-hw-mul/libc.a(lib_a-strcmp.o)
 .debug_line    0x0000a82a      0x353 /opt/altera/13.0sp1/nios2eds/bin/gnu/H-i686-pc-linux-gnu/bin/../lib/gcc/nios2-elf/4.1.2/../../../../nios2-elf/lib/mno-hw-mul/libc.a(lib_a-wbuf.o)
 .debug_line    0x0000ab7d      0x29d /opt/altera/13.0sp1/nios2eds/bin/gnu/H-i686-pc-linux-gnu/bin/../lib/gcc/nios2-elf/4.1.2/../../../../nios2-elf/lib/mno-hw-mul/libc.a(lib_a-writer.o)
 .debug_line    0x0000ae1a      0x25f /opt/altera/13.0sp1/nios2eds/bin/gnu/H-i686-pc-linux-gnu/bin/../lib/gcc/nios2-elf/4.1.2/../../../../nios2-elf/lib/mno-hw-mul/libc.a(lib_a-callocr.o)
 .debug_line    0x0000b079      0x29d /opt/altera/13.0sp1/nios2eds/bin/gnu/H-i686-pc-linux-gnu/bin/../lib/gcc/nios2-elf/4.1.2/../../../../nios2-elf/lib/mno-hw-mul/libc.a(lib_a-closer.o)
 .debug_line    0x0000b316      0x2eb /opt/altera/13.0sp1/nios2eds/bin/gnu/H-i686-pc-linux-gnu/bin/../lib/gcc/nios2-elf/4.1.2/../../../../nios2-elf/lib/mno-hw-mul/libc.a(lib_a-fclose.o)
 .debug_line    0x0000b601      0x267 /opt/altera/13.0sp1/nios2eds/bin/gnu/H-i686-pc-linux-gnu/bin/../lib/gcc/nios2-elf/4.1.2/../../../../nios2-elf/lib/mno-hw-mul/libc.a(lib_a-fstatr.o)
 .debug_line    0x0000b868      0x1e2 /opt/altera/13.0sp1/nios2eds/bin/gnu/H-i686-pc-linux-gnu/bin/../lib/gcc/nios2-elf/4.1.2/../../../../nios2-elf/lib/mno-hw-mul/libc.a(lib_a-int_errno.o)
 .debug_line    0x0000ba4a      0x29e /opt/altera/13.0sp1/nios2eds/bin/gnu/H-i686-pc-linux-gnu/bin/../lib/gcc/nios2-elf/4.1.2/../../../../nios2-elf/lib/mno-hw-mul/libc.a(lib_a-isattyr.o)
 .debug_line    0x0000bce8      0x29d /opt/altera/13.0sp1/nios2eds/bin/gnu/H-i686-pc-linux-gnu/bin/../lib/gcc/nios2-elf/4.1.2/../../../../nios2-elf/lib/mno-hw-mul/libc.a(lib_a-lseekr.o)
 .debug_line    0x0000bf85      0x29c /opt/altera/13.0sp1/nios2eds/bin/gnu/H-i686-pc-linux-gnu/bin/../lib/gcc/nios2-elf/4.1.2/../../../../nios2-elf/lib/mno-hw-mul/libc.a(lib_a-readr.o)
 .debug_line    0x0000c221      0x369 /opt/altera/13.0sp1/nios2eds/bin/gnu/H-i686-pc-linux-gnu/bin/../lib/gcc/nios2-elf/4.1.2/mno-hw-mul/libgcc.a(_udivdi3.o)
 .debug_line    0x0000c58a      0x47c /opt/altera/13.0sp1/nios2eds/bin/gnu/H-i686-pc-linux-gnu/bin/../lib/gcc/nios2-elf/4.1.2/mno-hw-mul/libgcc.a(_umoddi3.o)
 .debug_line    0x0000ca06      0x430 /opt/altera/13.0sp1/nios2eds/bin/gnu/H-i686-pc-linux-gnu/bin/../lib/gcc/nios2-elf/4.1.2/mno-hw-mul/libgcc.a(_addsub_df.o)
 .debug_line    0x0000ce36      0x3e5 /opt/altera/13.0sp1/nios2eds/bin/gnu/H-i686-pc-linux-gnu/bin/../lib/gcc/nios2-elf/4.1.2/mno-hw-mul/libgcc.a(_mul_df.o)
 .debug_line    0x0000d21b      0x129 /opt/altera/13.0sp1/nios2eds/bin/gnu/H-i686-pc-linux-gnu/bin/../lib/gcc/nios2-elf/4.1.2/mno-hw-mul/libgcc.a(_eq_df.o)
 .debug_line    0x0000d344      0x129 /opt/altera/13.0sp1/nios2eds/bin/gnu/H-i686-pc-linux-gnu/bin/../lib/gcc/nios2-elf/4.1.2/mno-hw-mul/libgcc.a(_ne_df.o)
 .debug_line    0x0000d46d      0x129 /opt/altera/13.0sp1/nios2eds/bin/gnu/H-i686-pc-linux-gnu/bin/../lib/gcc/nios2-elf/4.1.2/mno-hw-mul/libgcc.a(_gt_df.o)
 .debug_line    0x0000d596      0x129 /opt/altera/13.0sp1/nios2eds/bin/gnu/H-i686-pc-linux-gnu/bin/../lib/gcc/nios2-elf/4.1.2/mno-hw-mul/libgcc.a(_ge_df.o)
 .debug_line    0x0000d6bf      0x129 /opt/altera/13.0sp1/nios2eds/bin/gnu/H-i686-pc-linux-gnu/bin/../lib/gcc/nios2-elf/4.1.2/mno-hw-mul/libgcc.a(_lt_df.o)
 .debug_line    0x0000d7e8      0x175 /opt/altera/13.0sp1/nios2eds/bin/gnu/H-i686-pc-linux-gnu/bin/../lib/gcc/nios2-elf/4.1.2/mno-hw-mul/libgcc.a(_si_to_df.o)
 .debug_line    0x0000d95d      0x149 /opt/altera/13.0sp1/nios2eds/bin/gnu/H-i686-pc-linux-gnu/bin/../lib/gcc/nios2-elf/4.1.2/mno-hw-mul/libgcc.a(_df_to_si.o)
 .debug_line    0x0000daa6      0x1c6 /opt/altera/13.0sp1/nios2eds/bin/gnu/H-i686-pc-linux-gnu/bin/../lib/gcc/nios2-elf/4.1.2/mno-hw-mul/libgcc.a(_muldi3.o)
 .debug_line    0x0000dc6c      0x187 /opt/altera/13.0sp1/nios2eds/bin/gnu/H-i686-pc-linux-gnu/bin/../lib/gcc/nios2-elf/4.1.2/mno-hw-mul/libgcc.a(_fpcmp_parts_df.o)
 .debug_line    0x0000ddf3      0x2c9 ../../bsp/mpsoc_hello_ucosii_q2//libucosii_bsp.a(alt_alarm_start.o)
 .debug_line    0x0000e0bc      0x33b ../../bsp/mpsoc_hello_ucosii_q2//libucosii_bsp.a(alt_close.o)
 .debug_line    0x0000e3f7      0x2d7 ../../bsp/mpsoc_hello_ucosii_q2//libucosii_bsp.a(alt_dev.o)
 .debug_line    0x0000e6ce      0x1b8 ../../bsp/mpsoc_hello_ucosii_q2//libucosii_bsp.a(alt_errno.o)
 .debug_line    0x0000e886      0x331 ../../bsp/mpsoc_hello_ucosii_q2//libucosii_bsp.a(alt_fstat.o)
 .debug_line    0x0000ebb7      0x328 ../../bsp/mpsoc_hello_ucosii_q2//libucosii_bsp.a(alt_isatty.o)
 .debug_line    0x0000eedf      0x225 ../../bsp/mpsoc_hello_ucosii_q2//libucosii_bsp.a(alt_load.o)
 .debug_line    0x0000f104      0x2f5 ../../bsp/mpsoc_hello_ucosii_q2//libucosii_bsp.a(alt_lseek.o)
 .debug_line    0x0000f3f9      0x399 ../../bsp/mpsoc_hello_ucosii_q2//libucosii_bsp.a(alt_main.o)
 .debug_line    0x0000f792      0x37a ../../bsp/mpsoc_hello_ucosii_q2//libucosii_bsp.a(alt_read.o)
 .debug_line    0x0000fb0c      0x2cb ../../bsp/mpsoc_hello_ucosii_q2//libucosii_bsp.a(alt_release_fd.o)
 .debug_line    0x0000fdd7      0x271 ../../bsp/mpsoc_hello_ucosii_q2//libucosii_bsp.a(alt_sbrk.o)
 .debug_line    0x00010048      0x353 ../../bsp/mpsoc_hello_ucosii_q2//libucosii_bsp.a(alt_tick.o)
 .debug_line    0x0001039b      0x37b ../../bsp/mpsoc_hello_ucosii_q2//libucosii_bsp.a(alt_write.o)
 .debug_line    0x00010716      0x338 ../../bsp/mpsoc_hello_ucosii_q2//libucosii_bsp.a(alt_env_lock.o)
 .debug_line    0x00010a4e      0x3ac ../../bsp/mpsoc_hello_ucosii_q2//libucosii_bsp.a(alt_malloc_lock.o)
 .debug_line    0x00010dfa     0x1702 ../../bsp/mpsoc_hello_ucosii_q2//libucosii_bsp.a(os_core.o)
 .debug_line    0x000124fc      0x23f ../../bsp/mpsoc_hello_ucosii_q2//libucosii_bsp.a(os_dbg.o)
 .debug_line    0x0001273b      0xef6 ../../bsp/mpsoc_hello_ucosii_q2//libucosii_bsp.a(os_flag.o)
 .debug_line    0x00013631      0x71c ../../bsp/mpsoc_hello_ucosii_q2//libucosii_bsp.a(os_mem.o)
 .debug_line    0x00013d4d      0xcab ../../bsp/mpsoc_hello_ucosii_q2//libucosii_bsp.a(os_q.o)
 .debug_line    0x000149f8      0x86a ../../bsp/mpsoc_hello_ucosii_q2//libucosii_bsp.a(os_sem.o)
 .debug_line    0x00015262      0xf86 ../../bsp/mpsoc_hello_ucosii_q2//libucosii_bsp.a(os_task.o)
 .debug_line    0x000161e8      0x4ed ../../bsp/mpsoc_hello_ucosii_q2//libucosii_bsp.a(os_time.o)
 .debug_line    0x000166d5      0xc39 ../../bsp/mpsoc_hello_ucosii_q2//libucosii_bsp.a(os_tmr.o)
 .debug_line    0x0001730e      0x48f ../../bsp/mpsoc_hello_ucosii_q2//libucosii_bsp.a(alt_sys_init.o)
 .debug_line    0x0001779d      0x344 ../../bsp/mpsoc_hello_ucosii_q2//libucosii_bsp.a(altera_avalon_jtag_uart_fd.o)
 .debug_line    0x00017ae1      0x65e ../../bsp/mpsoc_hello_ucosii_q2//libucosii_bsp.a(altera_avalon_jtag_uart_init.o)
 .debug_line    0x0001813f      0x35b ../../bsp/mpsoc_hello_ucosii_q2//libucosii_bsp.a(altera_avalon_jtag_uart_ioctl.o)
 .debug_line    0x0001849a      0x4e7 ../../bsp/mpsoc_hello_ucosii_q2//libucosii_bsp.a(altera_avalon_jtag_uart_read.o)
 .debug_line    0x00018981      0x4dc ../../bsp/mpsoc_hello_ucosii_q2//libucosii_bsp.a(altera_avalon_jtag_uart_write.o)
 .debug_line    0x00018e5d      0x4c6 ../../bsp/mpsoc_hello_ucosii_q2//libucosii_bsp.a(altera_avalon_mutex.o)
 .debug_line    0x00019323      0x2de ../../bsp/mpsoc_hello_ucosii_q2//libucosii_bsp.a(altera_avalon_timer_sc.o)
 .debug_line    0x00019601      0x1c3 ../../bsp/mpsoc_hello_ucosii_q2//libucosii_bsp.a(alt_dcache_flush_all.o)
 .debug_line    0x000197c4      0x26a ../../bsp/mpsoc_hello_ucosii_q2//libucosii_bsp.a(alt_dev_llist_insert.o)
 .debug_line    0x00019a2e       0x8b ../../bsp/mpsoc_hello_ucosii_q2//libucosii_bsp.a(alt_do_ctors.o)
 .debug_line    0x00019ab9       0x8b ../../bsp/mpsoc_hello_ucosii_q2//libucosii_bsp.a(alt_do_dtors.o)
 .debug_line    0x00019b44      0x2f2 ../../bsp/mpsoc_hello_ucosii_q2//libucosii_bsp.a(alt_find_dev.o)
 .debug_line    0x00019e36      0x1c3 ../../bsp/mpsoc_hello_ucosii_q2//libucosii_bsp.a(alt_icache_flush_all.o)
 .debug_line    0x00019ff9      0x3ad ../../bsp/mpsoc_hello_ucosii_q2//libucosii_bsp.a(alt_io_redirect.o)
 .debug_line    0x0001a3a6      0x30a ../../bsp/mpsoc_hello_ucosii_q2//libucosii_bsp.a(alt_irq_register.o)
 .debug_line    0x0001a6b0       0x72 ../../bsp/mpsoc_hello_ucosii_q2//libucosii_bsp.a(alt_irq_vars.o)
 .debug_line    0x0001a722      0x371 ../../bsp/mpsoc_hello_ucosii_q2//libucosii_bsp.a(alt_open.o)
 .debug_line    0x0001aa93      0x1f5 ../../bsp/mpsoc_hello_ucosii_q2//libucosii_bsp.a(altera_nios2_qsys_irq.o)
 .debug_line    0x0001ac88       0x86 ../../bsp/mpsoc_hello_ucosii_q2//libucosii_bsp.a(os_cpu_a.o)
 .debug_line    0x0001ad0e      0x3dc ../../bsp/mpsoc_hello_ucosii_q2//libucosii_bsp.a(os_cpu_c.o)
 .debug_line    0x0001b0ea      0x31d ../../bsp/mpsoc_hello_ucosii_q2//libucosii_bsp.a(alt_find_file.o)
 .debug_line    0x0001b407      0x351 ../../bsp/mpsoc_hello_ucosii_q2//libucosii_bsp.a(alt_get_fd.o)
 .debug_line    0x0001b758       0x6b ../../bsp/mpsoc_hello_ucosii_q2//libucosii_bsp.a(alt_irq_entry.o)
 .debug_line    0x0001b7c3      0x2ca ../../bsp/mpsoc_hello_ucosii_q2//libucosii_bsp.a(alt_irq_handler.o)
 .debug_line    0x0001ba8d       0xab ../../bsp/mpsoc_hello_ucosii_q2//libucosii_bsp.a(alt_exception_entry.o)
 .debug_line    0x0001bb38      0x203 /opt/altera/13.0sp1/nios2eds/bin/gnu/H-i686-pc-linux-gnu/bin/../lib/gcc/nios2-elf/4.1.2/../../../../nios2-elf/lib/mno-hw-mul/libc.a(lib_a-atexit.o)
 .debug_line    0x0001bd3b      0x23b /opt/altera/13.0sp1/nios2eds/bin/gnu/H-i686-pc-linux-gnu/bin/../lib/gcc/nios2-elf/4.1.2/../../../../nios2-elf/lib/mno-hw-mul/libc.a(lib_a-exit.o)
 .debug_line    0x0001bf76      0x2a2 /opt/altera/13.0sp1/nios2eds/bin/gnu/H-i686-pc-linux-gnu/bin/../lib/gcc/nios2-elf/4.1.2/../../../../nios2-elf/lib/mno-hw-mul/libc.a(lib_a-memcmp.o)
 .debug_line    0x0001c218      0x316 /opt/altera/13.0sp1/nios2eds/bin/gnu/H-i686-pc-linux-gnu/bin/../lib/gcc/nios2-elf/4.1.2/../../../../nios2-elf/lib/mno-hw-mul/libc.a(lib_a-__atexit.o)
 .debug_line    0x0001c52e      0x36a /opt/altera/13.0sp1/nios2eds/bin/gnu/H-i686-pc-linux-gnu/bin/../lib/gcc/nios2-elf/4.1.2/../../../../nios2-elf/lib/mno-hw-mul/libc.a(lib_a-__call_atexit.o)
 .debug_line    0x0001c898      0x176 /opt/altera/13.0sp1/nios2eds/bin/gnu/H-i686-pc-linux-gnu/bin/../lib/gcc/nios2-elf/4.1.2/mno-hw-mul/libgcc.a(_fixunsdfsi.o)
 .debug_line    0x0001ca0e      0x273 ../../bsp/mpsoc_hello_ucosii_q2//libucosii_bsp.a(alt_exit.o)

.debug_frame    0x00000000     0x23a0
 *(.debug_frame)
 .debug_frame   0x00000000      0x120 obj/default/src/hello_ucosii.o
 .debug_frame   0x00000120       0x58 obj/default/src/imageProcessing.o
 .debug_frame   0x00000178       0x30 /opt/altera/13.0sp1/nios2eds/bin/gnu/H-i686-pc-linux-gnu/bin/../lib/gcc/nios2-elf/4.1.2/mno-hw-mul/libgcc.a(_div_df.o)
 .debug_frame   0x000001a8       0x38 /opt/altera/13.0sp1/nios2eds/bin/gnu/H-i686-pc-linux-gnu/bin/../lib/gcc/nios2-elf/4.1.2/mno-hw-mul/libgcc.a(_usi_to_df.o)
 .debug_frame   0x000001e0       0x70 /opt/altera/13.0sp1/nios2eds/bin/gnu/H-i686-pc-linux-gnu/bin/../lib/gcc/nios2-elf/4.1.2/mno-hw-mul/libgcc.a(lib2-divmod.o)
 .debug_frame   0x00000250       0x20 /opt/altera/13.0sp1/nios2eds/bin/gnu/H-i686-pc-linux-gnu/bin/../lib/gcc/nios2-elf/4.1.2/mno-hw-mul/libgcc.a(lib2-mul.o)
 .debug_frame   0x00000270       0x20 /opt/altera/13.0sp1/nios2eds/bin/gnu/H-i686-pc-linux-gnu/bin/../lib/gcc/nios2-elf/4.1.2/mno-hw-mul/libgcc.a(_clzsi2.o)
 .debug_frame   0x00000290       0x2c /opt/altera/13.0sp1/nios2eds/bin/gnu/H-i686-pc-linux-gnu/bin/../lib/gcc/nios2-elf/4.1.2/mno-hw-mul/libgcc.a(_pack_df.o)
 .debug_frame   0x000002bc       0x20 /opt/altera/13.0sp1/nios2eds/bin/gnu/H-i686-pc-linux-gnu/bin/../lib/gcc/nios2-elf/4.1.2/mno-hw-mul/libgcc.a(_unpack_df.o)
 .debug_frame   0x000002dc       0x40 /opt/altera/13.0sp1/nios2eds/bin/gnu/H-i686-pc-linux-gnu/bin/../lib/gcc/nios2-elf/4.1.2/../../../../nios2-elf/lib/mno-hw-mul/libc.a(lib_a-printf.o)
 .debug_frame   0x0000031c       0x30 /opt/altera/13.0sp1/nios2eds/bin/gnu/H-i686-pc-linux-gnu/bin/../lib/gcc/nios2-elf/4.1.2/../../../../nios2-elf/lib/mno-hw-mul/libc.a(lib_a-putchar.o)
 .debug_frame   0x0000034c       0x3c /opt/altera/13.0sp1/nios2eds/bin/gnu/H-i686-pc-linux-gnu/bin/../lib/gcc/nios2-elf/4.1.2/../../../../nios2-elf/lib/mno-hw-mul/libc.a(lib_a-puts.o)
 .debug_frame   0x00000388       0x20 /opt/altera/13.0sp1/nios2eds/bin/gnu/H-i686-pc-linux-gnu/bin/../lib/gcc/nios2-elf/4.1.2/../../../../nios2-elf/lib/mno-hw-mul/libc.a(lib_a-strlen.o)
 .debug_frame   0x000003a8       0x64 /opt/altera/13.0sp1/nios2eds/bin/gnu/H-i686-pc-linux-gnu/bin/../lib/gcc/nios2-elf/4.1.2/../../../../nios2-elf/lib/mno-hw-mul/libc.a(lib_a-vfprintf.o)
 .debug_frame   0x0000040c       0x2c /opt/altera/13.0sp1/nios2eds/bin/gnu/H-i686-pc-linux-gnu/bin/../lib/gcc/nios2-elf/4.1.2/../../../../nios2-elf/lib/mno-hw-mul/libc.a(lib_a-wsetup.o)
 .debug_frame   0x00000438       0x64 /opt/altera/13.0sp1/nios2eds/bin/gnu/H-i686-pc-linux-gnu/bin/../lib/gcc/nios2-elf/4.1.2/../../../../nios2-elf/lib/mno-hw-mul/libc.a(lib_a-dtoa.o)
 .debug_frame   0x0000049c       0x40 /opt/altera/13.0sp1/nios2eds/bin/gnu/H-i686-pc-linux-gnu/bin/../lib/gcc/nios2-elf/4.1.2/../../../../nios2-elf/lib/mno-hw-mul/libc.a(lib_a-fflush.o)
 .debug_frame   0x000004dc      0x118 /opt/altera/13.0sp1/nios2eds/bin/gnu/H-i686-pc-linux-gnu/bin/../lib/gcc/nios2-elf/4.1.2/../../../../nios2-elf/lib/mno-hw-mul/libc.a(lib_a-findfp.o)
 .debug_frame   0x000005f4       0x4c /opt/altera/13.0sp1/nios2eds/bin/gnu/H-i686-pc-linux-gnu/bin/../lib/gcc/nios2-elf/4.1.2/../../../../nios2-elf/lib/mno-hw-mul/libc.a(lib_a-freer.o)
 .debug_frame   0x00000640       0x38 /opt/altera/13.0sp1/nios2eds/bin/gnu/H-i686-pc-linux-gnu/bin/../lib/gcc/nios2-elf/4.1.2/../../../../nios2-elf/lib/mno-hw-mul/libc.a(lib_a-fvwrite.o)
 .debug_frame   0x00000678       0x60 /opt/altera/13.0sp1/nios2eds/bin/gnu/H-i686-pc-linux-gnu/bin/../lib/gcc/nios2-elf/4.1.2/../../../../nios2-elf/lib/mno-hw-mul/libc.a(lib_a-fwalk.o)
 .debug_frame   0x000006d8       0x70 /opt/altera/13.0sp1/nios2eds/bin/gnu/H-i686-pc-linux-gnu/bin/../lib/gcc/nios2-elf/4.1.2/../../../../nios2-elf/lib/mno-hw-mul/libc.a(lib_a-locale.o)
 .debug_frame   0x00000748       0x2c /opt/altera/13.0sp1/nios2eds/bin/gnu/H-i686-pc-linux-gnu/bin/../lib/gcc/nios2-elf/4.1.2/../../../../nios2-elf/lib/mno-hw-mul/libc.a(lib_a-makebuf.o)
 .debug_frame   0x00000774       0x38 /opt/altera/13.0sp1/nios2eds/bin/gnu/H-i686-pc-linux-gnu/bin/../lib/gcc/nios2-elf/4.1.2/../../../../nios2-elf/lib/mno-hw-mul/libc.a(lib_a-mallocr.o)
 .debug_frame   0x000007ac       0x20 /opt/altera/13.0sp1/nios2eds/bin/gnu/H-i686-pc-linux-gnu/bin/../lib/gcc/nios2-elf/4.1.2/../../../../nios2-elf/lib/mno-hw-mul/libc.a(lib_a-memchr.o)
 .debug_frame   0x000007cc       0x20 /opt/altera/13.0sp1/nios2eds/bin/gnu/H-i686-pc-linux-gnu/bin/../lib/gcc/nios2-elf/4.1.2/../../../../nios2-elf/lib/mno-hw-mul/libc.a(lib_a-memcpy.o)
 .debug_frame   0x000007ec       0x20 /opt/altera/13.0sp1/nios2eds/bin/gnu/H-i686-pc-linux-gnu/bin/../lib/gcc/nios2-elf/4.1.2/../../../../nios2-elf/lib/mno-hw-mul/libc.a(lib_a-memmove.o)
 .debug_frame   0x0000080c       0x20 /opt/altera/13.0sp1/nios2eds/bin/gnu/H-i686-pc-linux-gnu/bin/../lib/gcc/nios2-elf/4.1.2/../../../../nios2-elf/lib/mno-hw-mul/libc.a(lib_a-memset.o)
 .debug_frame   0x0000082c      0x228 /opt/altera/13.0sp1/nios2eds/bin/gnu/H-i686-pc-linux-gnu/bin/../lib/gcc/nios2-elf/4.1.2/../../../../nios2-elf/lib/mno-hw-mul/libc.a(lib_a-mprec.o)
 .debug_frame   0x00000a54       0x4c /opt/altera/13.0sp1/nios2eds/bin/gnu/H-i686-pc-linux-gnu/bin/../lib/gcc/nios2-elf/4.1.2/../../../../nios2-elf/lib/mno-hw-mul/libc.a(lib_a-putc.o)
 .debug_frame   0x00000aa0       0x38 /opt/altera/13.0sp1/nios2eds/bin/gnu/H-i686-pc-linux-gnu/bin/../lib/gcc/nios2-elf/4.1.2/../../../../nios2-elf/lib/mno-hw-mul/libc.a(lib_a-reallocr.o)
 .debug_frame   0x00000ad8       0x20 /opt/altera/13.0sp1/nios2eds/bin/gnu/H-i686-pc-linux-gnu/bin/../lib/gcc/nios2-elf/4.1.2/../../../../nios2-elf/lib/mno-hw-mul/libc.a(lib_a-s_isinfd.o)
 .debug_frame   0x00000af8       0x20 /opt/altera/13.0sp1/nios2eds/bin/gnu/H-i686-pc-linux-gnu/bin/../lib/gcc/nios2-elf/4.1.2/../../../../nios2-elf/lib/mno-hw-mul/libc.a(lib_a-s_isnand.o)
 .debug_frame   0x00000b18       0x2c /opt/altera/13.0sp1/nios2eds/bin/gnu/H-i686-pc-linux-gnu/bin/../lib/gcc/nios2-elf/4.1.2/../../../../nios2-elf/lib/mno-hw-mul/libc.a(lib_a-sbrkr.o)
 .debug_frame   0x00000b44       0x78 /opt/altera/13.0sp1/nios2eds/bin/gnu/H-i686-pc-linux-gnu/bin/../lib/gcc/nios2-elf/4.1.2/../../../../nios2-elf/lib/mno-hw-mul/libc.a(lib_a-stdio.o)
 .debug_frame   0x00000bbc       0x20 /opt/altera/13.0sp1/nios2eds/bin/gnu/H-i686-pc-linux-gnu/bin/../lib/gcc/nios2-elf/4.1.2/../../../../nios2-elf/lib/mno-hw-mul/libc.a(lib_a-strcmp.o)
 .debug_frame   0x00000bdc       0x3c /opt/altera/13.0sp1/nios2eds/bin/gnu/H-i686-pc-linux-gnu/bin/../lib/gcc/nios2-elf/4.1.2/../../../../nios2-elf/lib/mno-hw-mul/libc.a(lib_a-wbuf.o)
 .debug_frame   0x00000c18       0x2c /opt/altera/13.0sp1/nios2eds/bin/gnu/H-i686-pc-linux-gnu/bin/../lib/gcc/nios2-elf/4.1.2/../../../../nios2-elf/lib/mno-hw-mul/libc.a(lib_a-writer.o)
 .debug_frame   0x00000c44       0x2c /opt/altera/13.0sp1/nios2eds/bin/gnu/H-i686-pc-linux-gnu/bin/../lib/gcc/nios2-elf/4.1.2/../../../../nios2-elf/lib/mno-hw-mul/libc.a(lib_a-callocr.o)
 .debug_frame   0x00000c70       0x2c /opt/altera/13.0sp1/nios2eds/bin/gnu/H-i686-pc-linux-gnu/bin/../lib/gcc/nios2-elf/4.1.2/../../../../nios2-elf/lib/mno-hw-mul/libc.a(lib_a-closer.o)
 .debug_frame   0x00000c9c       0x3c /opt/altera/13.0sp1/nios2eds/bin/gnu/H-i686-pc-linux-gnu/bin/../lib/gcc/nios2-elf/4.1.2/../../../../nios2-elf/lib/mno-hw-mul/libc.a(lib_a-fclose.o)
 .debug_frame   0x00000cd8       0x2c /opt/altera/13.0sp1/nios2eds/bin/gnu/H-i686-pc-linux-gnu/bin/../lib/gcc/nios2-elf/4.1.2/../../../../nios2-elf/lib/mno-hw-mul/libc.a(lib_a-fstatr.o)
 .debug_frame   0x00000d04       0x2c /opt/altera/13.0sp1/nios2eds/bin/gnu/H-i686-pc-linux-gnu/bin/../lib/gcc/nios2-elf/4.1.2/../../../../nios2-elf/lib/mno-hw-mul/libc.a(lib_a-isattyr.o)
 .debug_frame   0x00000d30       0x2c /opt/altera/13.0sp1/nios2eds/bin/gnu/H-i686-pc-linux-gnu/bin/../lib/gcc/nios2-elf/4.1.2/../../../../nios2-elf/lib/mno-hw-mul/libc.a(lib_a-lseekr.o)
 .debug_frame   0x00000d5c       0x2c /opt/altera/13.0sp1/nios2eds/bin/gnu/H-i686-pc-linux-gnu/bin/../lib/gcc/nios2-elf/4.1.2/../../../../nios2-elf/lib/mno-hw-mul/libc.a(lib_a-readr.o)
 .debug_frame   0x00000d88       0x38 /opt/altera/13.0sp1/nios2eds/bin/gnu/H-i686-pc-linux-gnu/bin/../lib/gcc/nios2-elf/4.1.2/mno-hw-mul/libgcc.a(_udivdi3.o)
 .debug_frame   0x00000dc0       0x38 /opt/altera/13.0sp1/nios2eds/bin/gnu/H-i686-pc-linux-gnu/bin/../lib/gcc/nios2-elf/4.1.2/mno-hw-mul/libgcc.a(_umoddi3.o)
 .debug_frame   0x00000df8       0x70 /opt/altera/13.0sp1/nios2eds/bin/gnu/H-i686-pc-linux-gnu/bin/../lib/gcc/nios2-elf/4.1.2/mno-hw-mul/libgcc.a(_addsub_df.o)
 .debug_frame   0x00000e68       0x3c /opt/altera/13.0sp1/nios2eds/bin/gnu/H-i686-pc-linux-gnu/bin/../lib/gcc/nios2-elf/4.1.2/mno-hw-mul/libgcc.a(_mul_df.o)
 .debug_frame   0x00000ea4       0x2c /opt/altera/13.0sp1/nios2eds/bin/gnu/H-i686-pc-linux-gnu/bin/../lib/gcc/nios2-elf/4.1.2/mno-hw-mul/libgcc.a(_eq_df.o)
 .debug_frame   0x00000ed0       0x2c /opt/altera/13.0sp1/nios2eds/bin/gnu/H-i686-pc-linux-gnu/bin/../lib/gcc/nios2-elf/4.1.2/mno-hw-mul/libgcc.a(_ne_df.o)
 .debug_frame   0x00000efc       0x2c /opt/altera/13.0sp1/nios2eds/bin/gnu/H-i686-pc-linux-gnu/bin/../lib/gcc/nios2-elf/4.1.2/mno-hw-mul/libgcc.a(_gt_df.o)
 .debug_frame   0x00000f28       0x2c /opt/altera/13.0sp1/nios2eds/bin/gnu/H-i686-pc-linux-gnu/bin/../lib/gcc/nios2-elf/4.1.2/mno-hw-mul/libgcc.a(_ge_df.o)
 .debug_frame   0x00000f54       0x2c /opt/altera/13.0sp1/nios2eds/bin/gnu/H-i686-pc-linux-gnu/bin/../lib/gcc/nios2-elf/4.1.2/mno-hw-mul/libgcc.a(_lt_df.o)
 .debug_frame   0x00000f80       0x30 /opt/altera/13.0sp1/nios2eds/bin/gnu/H-i686-pc-linux-gnu/bin/../lib/gcc/nios2-elf/4.1.2/mno-hw-mul/libgcc.a(_si_to_df.o)
 .debug_frame   0x00000fb0       0x28 /opt/altera/13.0sp1/nios2eds/bin/gnu/H-i686-pc-linux-gnu/bin/../lib/gcc/nios2-elf/4.1.2/mno-hw-mul/libgcc.a(_df_to_si.o)
 .debug_frame   0x00000fd8       0x40 /opt/altera/13.0sp1/nios2eds/bin/gnu/H-i686-pc-linux-gnu/bin/../lib/gcc/nios2-elf/4.1.2/mno-hw-mul/libgcc.a(_muldi3.o)
 .debug_frame   0x00001018       0x20 /opt/altera/13.0sp1/nios2eds/bin/gnu/H-i686-pc-linux-gnu/bin/../lib/gcc/nios2-elf/4.1.2/mno-hw-mul/libgcc.a(_fpcmp_parts_df.o)
 .debug_frame   0x00001038       0x20 ../../bsp/mpsoc_hello_ucosii_q2//libucosii_bsp.a(alt_alarm_start.o)
 .debug_frame   0x00001058       0x3c ../../bsp/mpsoc_hello_ucosii_q2//libucosii_bsp.a(alt_close.o)
 .debug_frame   0x00001094       0x20 ../../bsp/mpsoc_hello_ucosii_q2//libucosii_bsp.a(alt_dev.o)
 .debug_frame   0x000010b4       0x28 ../../bsp/mpsoc_hello_ucosii_q2//libucosii_bsp.a(alt_fstat.o)
 .debug_frame   0x000010dc       0x28 ../../bsp/mpsoc_hello_ucosii_q2//libucosii_bsp.a(alt_isatty.o)
 .debug_frame   0x00001104       0x38 ../../bsp/mpsoc_hello_ucosii_q2//libucosii_bsp.a(alt_load.o)
 .debug_frame   0x0000113c       0x2c ../../bsp/mpsoc_hello_ucosii_q2//libucosii_bsp.a(alt_lseek.o)
 .debug_frame   0x00001168       0x2c ../../bsp/mpsoc_hello_ucosii_q2//libucosii_bsp.a(alt_main.o)
 .debug_frame   0x00001194       0x40 ../../bsp/mpsoc_hello_ucosii_q2//libucosii_bsp.a(alt_read.o)
 .debug_frame   0x000011d4       0x2c ../../bsp/mpsoc_hello_ucosii_q2//libucosii_bsp.a(alt_release_fd.o)
 .debug_frame   0x00001200       0x20 ../../bsp/mpsoc_hello_ucosii_q2//libucosii_bsp.a(alt_sbrk.o)
 .debug_frame   0x00001220       0x3c ../../bsp/mpsoc_hello_ucosii_q2//libucosii_bsp.a(alt_tick.o)
 .debug_frame   0x0000125c       0x40 ../../bsp/mpsoc_hello_ucosii_q2//libucosii_bsp.a(alt_write.o)
 .debug_frame   0x0000129c       0x38 ../../bsp/mpsoc_hello_ucosii_q2//libucosii_bsp.a(alt_env_lock.o)
 .debug_frame   0x000012d4       0x3c ../../bsp/mpsoc_hello_ucosii_q2//libucosii_bsp.a(alt_malloc_lock.o)
 .debug_frame   0x00001310      0x25c ../../bsp/mpsoc_hello_ucosii_q2//libucosii_bsp.a(os_core.o)
 .debug_frame   0x0000156c       0x20 ../../bsp/mpsoc_hello_ucosii_q2//libucosii_bsp.a(os_dbg.o)
 .debug_frame   0x0000158c      0x148 ../../bsp/mpsoc_hello_ucosii_q2//libucosii_bsp.a(os_flag.o)
 .debug_frame   0x000016d4       0xa0 ../../bsp/mpsoc_hello_ucosii_q2//libucosii_bsp.a(os_mem.o)
 .debug_frame   0x00001774      0x124 ../../bsp/mpsoc_hello_ucosii_q2//libucosii_bsp.a(os_q.o)
 .debug_frame   0x00001898       0xd0 ../../bsp/mpsoc_hello_ucosii_q2//libucosii_bsp.a(os_sem.o)
 .debug_frame   0x00001968      0x148 ../../bsp/mpsoc_hello_ucosii_q2//libucosii_bsp.a(os_task.o)
 .debug_frame   0x00001ab0       0x78 ../../bsp/mpsoc_hello_ucosii_q2//libucosii_bsp.a(os_time.o)
 .debug_frame   0x00001b28      0x184 ../../bsp/mpsoc_hello_ucosii_q2//libucosii_bsp.a(os_tmr.o)
 .debug_frame   0x00001cac       0x70 ../../bsp/mpsoc_hello_ucosii_q2//libucosii_bsp.a(alt_sys_init.o)
 .debug_frame   0x00001d1c       0x50 ../../bsp/mpsoc_hello_ucosii_q2//libucosii_bsp.a(altera_avalon_jtag_uart_fd.o)
 .debug_frame   0x00001d6c       0x7c ../../bsp/mpsoc_hello_ucosii_q2//libucosii_bsp.a(altera_avalon_jtag_uart_init.o)
 .debug_frame   0x00001de8       0x20 ../../bsp/mpsoc_hello_ucosii_q2//libucosii_bsp.a(altera_avalon_jtag_uart_ioctl.o)
 .debug_frame   0x00001e08       0x3c ../../bsp/mpsoc_hello_ucosii_q2//libucosii_bsp.a(altera_avalon_jtag_uart_read.o)
 .debug_frame   0x00001e44       0x38 ../../bsp/mpsoc_hello_ucosii_q2//libucosii_bsp.a(altera_avalon_jtag_uart_write.o)
 .debug_frame   0x00001e7c       0xb0 ../../bsp/mpsoc_hello_ucosii_q2//libucosii_bsp.a(altera_avalon_mutex.o)
 .debug_frame   0x00001f2c       0x38 ../../bsp/mpsoc_hello_ucosii_q2//libucosii_bsp.a(altera_avalon_timer_sc.o)
 .debug_frame   0x00001f64       0x20 ../../bsp/mpsoc_hello_ucosii_q2//libucosii_bsp.a(alt_dcache_flush_all.o)
 .debug_frame   0x00001f84       0x28 ../../bsp/mpsoc_hello_ucosii_q2//libucosii_bsp.a(alt_dev_llist_insert.o)
 .debug_frame   0x00001fac       0x2c ../../bsp/mpsoc_hello_ucosii_q2//libucosii_bsp.a(alt_do_ctors.o)
 .debug_frame   0x00001fd8       0x2c ../../bsp/mpsoc_hello_ucosii_q2//libucosii_bsp.a(alt_do_dtors.o)
 .debug_frame   0x00002004       0x30 ../../bsp/mpsoc_hello_ucosii_q2//libucosii_bsp.a(alt_find_dev.o)
 .debug_frame   0x00002034       0x20 ../../bsp/mpsoc_hello_ucosii_q2//libucosii_bsp.a(alt_icache_flush_all.o)
 .debug_frame   0x00002054       0x50 ../../bsp/mpsoc_hello_ucosii_q2//libucosii_bsp.a(alt_io_redirect.o)
 .debug_frame   0x000020a4       0x20 ../../bsp/mpsoc_hello_ucosii_q2//libucosii_bsp.a(alt_irq_register.o)
 .debug_frame   0x000020c4       0x34 ../../bsp/mpsoc_hello_ucosii_q2//libucosii_bsp.a(alt_open.o)
 .debug_frame   0x000020f8       0x20 ../../bsp/mpsoc_hello_ucosii_q2//libucosii_bsp.a(altera_nios2_qsys_irq.o)
 .debug_frame   0x00002118       0xcc ../../bsp/mpsoc_hello_ucosii_q2//libucosii_bsp.a(os_cpu_c.o)
 .debug_frame   0x000021e4       0x30 ../../bsp/mpsoc_hello_ucosii_q2//libucosii_bsp.a(alt_find_file.o)
 .debug_frame   0x00002214       0x2c ../../bsp/mpsoc_hello_ucosii_q2//libucosii_bsp.a(alt_get_fd.o)
 .debug_frame   0x00002240       0x28 ../../bsp/mpsoc_hello_ucosii_q2//libucosii_bsp.a(alt_irq_handler.o)
 .debug_frame   0x00002268       0x20 /opt/altera/13.0sp1/nios2eds/bin/gnu/H-i686-pc-linux-gnu/bin/../lib/gcc/nios2-elf/4.1.2/../../../../nios2-elf/lib/mno-hw-mul/libc.a(lib_a-atexit.o)
 .debug_frame   0x00002288       0x28 /opt/altera/13.0sp1/nios2eds/bin/gnu/H-i686-pc-linux-gnu/bin/../lib/gcc/nios2-elf/4.1.2/../../../../nios2-elf/lib/mno-hw-mul/libc.a(lib_a-exit.o)
 .debug_frame   0x000022b0       0x20 /opt/altera/13.0sp1/nios2eds/bin/gnu/H-i686-pc-linux-gnu/bin/../lib/gcc/nios2-elf/4.1.2/../../../../nios2-elf/lib/mno-hw-mul/libc.a(lib_a-memcmp.o)
 .debug_frame   0x000022d0       0x34 /opt/altera/13.0sp1/nios2eds/bin/gnu/H-i686-pc-linux-gnu/bin/../lib/gcc/nios2-elf/4.1.2/../../../../nios2-elf/lib/mno-hw-mul/libc.a(lib_a-__atexit.o)
 .debug_frame   0x00002304       0x4c /opt/altera/13.0sp1/nios2eds/bin/gnu/H-i686-pc-linux-gnu/bin/../lib/gcc/nios2-elf/4.1.2/../../../../nios2-elf/lib/mno-hw-mul/libc.a(lib_a-__call_atexit.o)
 .debug_frame   0x00002350       0x30 /opt/altera/13.0sp1/nios2eds/bin/gnu/H-i686-pc-linux-gnu/bin/../lib/gcc/nios2-elf/4.1.2/mno-hw-mul/libgcc.a(_fixunsdfsi.o)
 .debug_frame   0x00002380       0x20 ../../bsp/mpsoc_hello_ucosii_q2//libucosii_bsp.a(alt_exit.o)

.debug_str      0x00000000     0x43cc
 *(.debug_str)
 .debug_str     0x00000000      0x415 obj/default/src/hello_ucosii.o
                                0x497 (size before relaxing)
 .debug_str     0x00000415       0x4b obj/default/src/imageProcessing.o
                                 0xc4 (size before relaxing)
 .debug_str     0x00000460      0x18a /opt/altera/13.0sp1/nios2eds/bin/gnu/H-i686-pc-linux-gnu/bin/../lib/gcc/nios2-elf/4.1.2/mno-hw-mul/libgcc.a(_div_df.o)
                                0x236 (size before relaxing)
 .debug_str     0x00000000      0x1a8 /opt/altera/13.0sp1/nios2eds/bin/gnu/H-i686-pc-linux-gnu/bin/../lib/gcc/nios2-elf/4.1.2/mno-hw-mul/libgcc.a(_thenan_df.o)
 .debug_str     0x000005ea       0x1b /opt/altera/13.0sp1/nios2eds/bin/gnu/H-i686-pc-linux-gnu/bin/../lib/gcc/nios2-elf/4.1.2/mno-hw-mul/libgcc.a(_usi_to_df.o)
                                0x1df (size before relaxing)
 .debug_str     0x00000605       0x93 /opt/altera/13.0sp1/nios2eds/bin/gnu/H-i686-pc-linux-gnu/bin/../lib/gcc/nios2-elf/4.1.2/mno-hw-mul/libgcc.a(lib2-divmod.o)
                                0x1b9 (size before relaxing)
 .debug_str     0x00000698       0x37 /opt/altera/13.0sp1/nios2eds/bin/gnu/H-i686-pc-linux-gnu/bin/../lib/gcc/nios2-elf/4.1.2/mno-hw-mul/libgcc.a(lib2-mul.o)
                                0x17a (size before relaxing)
 .debug_str     0x000006cf       0x40 /opt/altera/13.0sp1/nios2eds/bin/gnu/H-i686-pc-linux-gnu/bin/../lib/gcc/nios2-elf/4.1.2/mno-hw-mul/libgcc.a(_clzsi2.o)
                                0x183 (size before relaxing)
 .debug_str     0x0000070f       0x10 /opt/altera/13.0sp1/nios2eds/bin/gnu/H-i686-pc-linux-gnu/bin/../lib/gcc/nios2-elf/4.1.2/mno-hw-mul/libgcc.a(_pack_df.o)
                                0x20b (size before relaxing)
 .debug_str     0x0000071f        0xb /opt/altera/13.0sp1/nios2eds/bin/gnu/H-i686-pc-linux-gnu/bin/../lib/gcc/nios2-elf/4.1.2/mno-hw-mul/libgcc.a(_unpack_df.o)
                                0x1ed (size before relaxing)
 .debug_str     0x00000000      0x166 /opt/altera/13.0sp1/nios2eds/bin/gnu/H-i686-pc-linux-gnu/bin/../lib/gcc/nios2-elf/4.1.2/mno-hw-mul/libgcc.a(_clz.o)
 .debug_str     0x0000072a      0x425 /opt/altera/13.0sp1/nios2eds/bin/gnu/H-i686-pc-linux-gnu/bin/../lib/gcc/nios2-elf/4.1.2/../../../../nios2-elf/lib/mno-hw-mul/libc.a(lib_a-printf.o)
                                0x536 (size before relaxing)
 .debug_str     0x00000b4f       0x51 /opt/altera/13.0sp1/nios2eds/bin/gnu/H-i686-pc-linux-gnu/bin/../lib/gcc/nios2-elf/4.1.2/../../../../nios2-elf/lib/mno-hw-mul/libc.a(lib_a-putchar.o)
                                0x522 (size before relaxing)
 .debug_str     0x00000ba0       0x84 /opt/altera/13.0sp1/nios2eds/bin/gnu/H-i686-pc-linux-gnu/bin/../lib/gcc/nios2-elf/4.1.2/../../../../nios2-elf/lib/mno-hw-mul/libc.a(lib_a-puts.o)
                                0x55c (size before relaxing)
 .debug_str     0x00000c24       0xee /opt/altera/13.0sp1/nios2eds/bin/gnu/H-i686-pc-linux-gnu/bin/../lib/gcc/nios2-elf/4.1.2/../../../../nios2-elf/lib/mno-hw-mul/libc.a(lib_a-strlen.o)
                                0x190 (size before relaxing)
 .debug_str     0x00000d12      0x181 /opt/altera/13.0sp1/nios2eds/bin/gnu/H-i686-pc-linux-gnu/bin/../lib/gcc/nios2-elf/4.1.2/../../../../nios2-elf/lib/mno-hw-mul/libc.a(lib_a-vfprintf.o)
                                0x70b (size before relaxing)
 .debug_str     0x00000e93       0x49 /opt/altera/13.0sp1/nios2eds/bin/gnu/H-i686-pc-linux-gnu/bin/../lib/gcc/nios2-elf/4.1.2/../../../../nios2-elf/lib/mno-hw-mul/libc.a(lib_a-wsetup.o)
                                0x51f (size before relaxing)
 .debug_str     0x00000edc      0x1a1 /opt/altera/13.0sp1/nios2eds/bin/gnu/H-i686-pc-linux-gnu/bin/../lib/gcc/nios2-elf/4.1.2/../../../../nios2-elf/lib/mno-hw-mul/libc.a(lib_a-dtoa.o)
                                0x614 (size before relaxing)
 .debug_str     0x0000107d       0x68 /opt/altera/13.0sp1/nios2eds/bin/gnu/H-i686-pc-linux-gnu/bin/../lib/gcc/nios2-elf/4.1.2/../../../../nios2-elf/lib/mno-hw-mul/libc.a(lib_a-fflush.o)
                                0x545 (size before relaxing)
 .debug_str     0x000010e5      0x105 /opt/altera/13.0sp1/nios2eds/bin/gnu/H-i686-pc-linux-gnu/bin/../lib/gcc/nios2-elf/4.1.2/../../../../nios2-elf/lib/mno-hw-mul/libc.a(lib_a-findfp.o)
                                0x607 (size before relaxing)
 .debug_str     0x000011ea      0x15e /opt/altera/13.0sp1/nios2eds/bin/gnu/H-i686-pc-linux-gnu/bin/../lib/gcc/nios2-elf/4.1.2/../../../../nios2-elf/lib/mno-hw-mul/libc.a(lib_a-freer.o)
                                0x656 (size before relaxing)
 .debug_str     0x00001348       0x69 /opt/altera/13.0sp1/nios2eds/bin/gnu/H-i686-pc-linux-gnu/bin/../lib/gcc/nios2-elf/4.1.2/../../../../nios2-elf/lib/mno-hw-mul/libc.a(lib_a-fvwrite.o)
                                0x576 (size before relaxing)
 .debug_str     0x000013b1       0x61 /opt/altera/13.0sp1/nios2eds/bin/gnu/H-i686-pc-linux-gnu/bin/../lib/gcc/nios2-elf/4.1.2/../../../../nios2-elf/lib/mno-hw-mul/libc.a(lib_a-fwalk.o)
                                0x548 (size before relaxing)
 .debug_str     0x00001412       0xe4 /opt/altera/13.0sp1/nios2eds/bin/gnu/H-i686-pc-linux-gnu/bin/../lib/gcc/nios2-elf/4.1.2/../../../../nios2-elf/lib/mno-hw-mul/libc.a(lib_a-impure.o)
                                0x52d (size before relaxing)
 .debug_str     0x000014f6      0x238 /opt/altera/13.0sp1/nios2eds/bin/gnu/H-i686-pc-linux-gnu/bin/../lib/gcc/nios2-elf/4.1.2/../../../../nios2-elf/lib/mno-hw-mul/libc.a(lib_a-locale.o)
                                0x6bc (size before relaxing)
 .debug_str     0x0000172e      0x126 /opt/altera/13.0sp1/nios2eds/bin/gnu/H-i686-pc-linux-gnu/bin/../lib/gcc/nios2-elf/4.1.2/../../../../nios2-elf/lib/mno-hw-mul/libc.a(lib_a-makebuf.o)
                                0x619 (size before relaxing)
 .debug_str     0x00001854       0xef /opt/altera/13.0sp1/nios2eds/bin/gnu/H-i686-pc-linux-gnu/bin/../lib/gcc/nios2-elf/4.1.2/../../../../nios2-elf/lib/mno-hw-mul/libc.a(lib_a-mallocr.o)
                                0x704 (size before relaxing)
 .debug_str     0x00001943       0x5a /opt/altera/13.0sp1/nios2eds/bin/gnu/H-i686-pc-linux-gnu/bin/../lib/gcc/nios2-elf/4.1.2/../../../../nios2-elf/lib/mno-hw-mul/libc.a(lib_a-memchr.o)
                                0x19e (size before relaxing)
 .debug_str     0x0000199d       0x6c /opt/altera/13.0sp1/nios2eds/bin/gnu/H-i686-pc-linux-gnu/bin/../lib/gcc/nios2-elf/4.1.2/../../../../nios2-elf/lib/mno-hw-mul/libc.a(lib_a-memcpy.o)
                                0x13b (size before relaxing)
 .debug_str     0x00001a09       0x50 /opt/altera/13.0sp1/nios2eds/bin/gnu/H-i686-pc-linux-gnu/bin/../lib/gcc/nios2-elf/4.1.2/../../../../nios2-elf/lib/mno-hw-mul/libc.a(lib_a-memmove.o)
                                0x1b0 (size before relaxing)
 .debug_str     0x00001a59       0x45 /opt/altera/13.0sp1/nios2eds/bin/gnu/H-i686-pc-linux-gnu/bin/../lib/gcc/nios2-elf/4.1.2/../../../../nios2-elf/lib/mno-hw-mul/libc.a(lib_a-memset.o)
                                0x191 (size before relaxing)
 .debug_str     0x00001a9e       0xfb /opt/altera/13.0sp1/nios2eds/bin/gnu/H-i686-pc-linux-gnu/bin/../lib/gcc/nios2-elf/4.1.2/../../../../nios2-elf/lib/mno-hw-mul/libc.a(lib_a-mprec.o)
                                0x621 (size before relaxing)
 .debug_str     0x00001b99       0x48 /opt/altera/13.0sp1/nios2eds/bin/gnu/H-i686-pc-linux-gnu/bin/../lib/gcc/nios2-elf/4.1.2/../../../../nios2-elf/lib/mno-hw-mul/libc.a(lib_a-putc.o)
                                0x525 (size before relaxing)
 .debug_str     0x00001be1       0x54 /opt/altera/13.0sp1/nios2eds/bin/gnu/H-i686-pc-linux-gnu/bin/../lib/gcc/nios2-elf/4.1.2/../../../../nios2-elf/lib/mno-hw-mul/libc.a(lib_a-reallocr.o)
                                0x5d6 (size before relaxing)
 .debug_str     0x00001c35       0xef /opt/altera/13.0sp1/nios2eds/bin/gnu/H-i686-pc-linux-gnu/bin/../lib/gcc/nios2-elf/4.1.2/../../../../nios2-elf/lib/mno-hw-mul/libc.a(lib_a-s_isinfd.o)
                                0x19d (size before relaxing)
 .debug_str     0x00001d24       0x49 /opt/altera/13.0sp1/nios2eds/bin/gnu/H-i686-pc-linux-gnu/bin/../lib/gcc/nios2-elf/4.1.2/../../../../nios2-elf/lib/mno-hw-mul/libc.a(lib_a-s_isnand.o)
                                0x19d (size before relaxing)
 .debug_str     0x00001d6d       0x53 /opt/altera/13.0sp1/nios2eds/bin/gnu/H-i686-pc-linux-gnu/bin/../lib/gcc/nios2-elf/4.1.2/../../../../nios2-elf/lib/mno-hw-mul/libc.a(lib_a-sbrkr.o)
                                0x51e (size before relaxing)
 .debug_str     0x00001dc0       0x65 /opt/altera/13.0sp1/nios2eds/bin/gnu/H-i686-pc-linux-gnu/bin/../lib/gcc/nios2-elf/4.1.2/../../../../nios2-elf/lib/mno-hw-mul/libc.a(lib_a-stdio.o)
                                0x544 (size before relaxing)
 .debug_str     0x00001e25       0x45 /opt/altera/13.0sp1/nios2eds/bin/gnu/H-i686-pc-linux-gnu/bin/../lib/gcc/nios2-elf/4.1.2/../../../../nios2-elf/lib/mno-hw-mul/libc.a(lib_a-strcmp.o)
                                0x176 (size before relaxing)
 .debug_str     0x00001e6a       0x4d /opt/altera/13.0sp1/nios2eds/bin/gnu/H-i686-pc-linux-gnu/bin/../lib/gcc/nios2-elf/4.1.2/../../../../nios2-elf/lib/mno-hw-mul/libc.a(lib_a-wbuf.o)
                                0x523 (size before relaxing)
 .debug_str     0x00001eb7       0x4f /opt/altera/13.0sp1/nios2eds/bin/gnu/H-i686-pc-linux-gnu/bin/../lib/gcc/nios2-elf/4.1.2/../../../../nios2-elf/lib/mno-hw-mul/libc.a(lib_a-writer.o)
                                0x521 (size before relaxing)
 .debug_str     0x00001f06       0x19 /opt/altera/13.0sp1/nios2eds/bin/gnu/H-i686-pc-linux-gnu/bin/../lib/gcc/nios2-elf/4.1.2/../../../../nios2-elf/lib/mno-hw-mul/libc.a(lib_a-callocr.o)
                                0x555 (size before relaxing)
 .debug_str     0x00001f1f       0x46 /opt/altera/13.0sp1/nios2eds/bin/gnu/H-i686-pc-linux-gnu/bin/../lib/gcc/nios2-elf/4.1.2/../../../../nios2-elf/lib/mno-hw-mul/libc.a(lib_a-closer.o)
                                0x511 (size before relaxing)
 .debug_str     0x00001f65       0x4e /opt/altera/13.0sp1/nios2eds/bin/gnu/H-i686-pc-linux-gnu/bin/../lib/gcc/nios2-elf/4.1.2/../../../../nios2-elf/lib/mno-hw-mul/libc.a(lib_a-fclose.o)
                                0x529 (size before relaxing)
 .debug_str     0x00001fb3       0x4c /opt/altera/13.0sp1/nios2eds/bin/gnu/H-i686-pc-linux-gnu/bin/../lib/gcc/nios2-elf/4.1.2/../../../../nios2-elf/lib/mno-hw-mul/libc.a(lib_a-fstatr.o)
                                0x604 (size before relaxing)
 .debug_str     0x00001fff       0x40 /opt/altera/13.0sp1/nios2eds/bin/gnu/H-i686-pc-linux-gnu/bin/../lib/gcc/nios2-elf/4.1.2/../../../../nios2-elf/lib/mno-hw-mul/libc.a(lib_a-int_errno.o)
                                0x176 (size before relaxing)
 .debug_str     0x0000203f       0x48 /opt/altera/13.0sp1/nios2eds/bin/gnu/H-i686-pc-linux-gnu/bin/../lib/gcc/nios2-elf/4.1.2/../../../../nios2-elf/lib/mno-hw-mul/libc.a(lib_a-isattyr.o)
                                0x513 (size before relaxing)
 .debug_str     0x00002087       0x46 /opt/altera/13.0sp1/nios2eds/bin/gnu/H-i686-pc-linux-gnu/bin/../lib/gcc/nios2-elf/4.1.2/../../../../nios2-elf/lib/mno-hw-mul/libc.a(lib_a-lseekr.o)
                                0x51f (size before relaxing)
 .debug_str     0x000020cd       0x44 /opt/altera/13.0sp1/nios2eds/bin/gnu/H-i686-pc-linux-gnu/bin/../lib/gcc/nios2-elf/4.1.2/../../../../nios2-elf/lib/mno-hw-mul/libc.a(lib_a-readr.o)
                                0x51f (size before relaxing)
 .debug_str     0x00002111       0x73 /opt/altera/13.0sp1/nios2eds/bin/gnu/H-i686-pc-linux-gnu/bin/../lib/gcc/nios2-elf/4.1.2/mno-hw-mul/libgcc.a(_udivdi3.o)
                                0x1fc (size before relaxing)
 .debug_str     0x00002184        0xa /opt/altera/13.0sp1/nios2eds/bin/gnu/H-i686-pc-linux-gnu/bin/../lib/gcc/nios2-elf/4.1.2/mno-hw-mul/libgcc.a(_umoddi3.o)
                                0x1fc (size before relaxing)
 .debug_str     0x0000218e       0x67 /opt/altera/13.0sp1/nios2eds/bin/gnu/H-i686-pc-linux-gnu/bin/../lib/gcc/nios2-elf/4.1.2/mno-hw-mul/libgcc.a(_addsub_df.o)
                                0x274 (size before relaxing)
 .debug_str     0x000021f5       0x40 /opt/altera/13.0sp1/nios2eds/bin/gnu/H-i686-pc-linux-gnu/bin/../lib/gcc/nios2-elf/4.1.2/mno-hw-mul/libgcc.a(_mul_df.o)
                                0x246 (size before relaxing)
 .debug_str     0x00002235        0x8 /opt/altera/13.0sp1/nios2eds/bin/gnu/H-i686-pc-linux-gnu/bin/../lib/gcc/nios2-elf/4.1.2/mno-hw-mul/libgcc.a(_eq_df.o)
                                0x203 (size before relaxing)
 .debug_str     0x0000223d        0x8 /opt/altera/13.0sp1/nios2eds/bin/gnu/H-i686-pc-linux-gnu/bin/../lib/gcc/nios2-elf/4.1.2/mno-hw-mul/libgcc.a(_ne_df.o)
                                0x203 (size before relaxing)
 .debug_str     0x00002245        0x8 /opt/altera/13.0sp1/nios2eds/bin/gnu/H-i686-pc-linux-gnu/bin/../lib/gcc/nios2-elf/4.1.2/mno-hw-mul/libgcc.a(_gt_df.o)
                                0x203 (size before relaxing)
 .debug_str     0x0000224d        0x8 /opt/altera/13.0sp1/nios2eds/bin/gnu/H-i686-pc-linux-gnu/bin/../lib/gcc/nios2-elf/4.1.2/mno-hw-mul/libgcc.a(_ge_df.o)
                                0x203 (size before relaxing)
 .debug_str     0x00002255        0x8 /opt/altera/13.0sp1/nios2eds/bin/gnu/H-i686-pc-linux-gnu/bin/../lib/gcc/nios2-elf/4.1.2/mno-hw-mul/libgcc.a(_lt_df.o)
                                0x203 (size before relaxing)
 .debug_str     0x0000225d       0x11 /opt/altera/13.0sp1/nios2eds/bin/gnu/H-i686-pc-linux-gnu/bin/../lib/gcc/nios2-elf/4.1.2/mno-hw-mul/libgcc.a(_si_to_df.o)
                                0x1e3 (size before relaxing)
 .debug_str     0x0000226e        0xa /opt/altera/13.0sp1/nios2eds/bin/gnu/H-i686-pc-linux-gnu/bin/../lib/gcc/nios2-elf/4.1.2/mno-hw-mul/libgcc.a(_df_to_si.o)
                                0x20c (size before relaxing)
 .debug_str     0x00002278        0x9 /opt/altera/13.0sp1/nios2eds/bin/gnu/H-i686-pc-linux-gnu/bin/../lib/gcc/nios2-elf/4.1.2/mno-hw-mul/libgcc.a(_muldi3.o)
                                0x1b1 (size before relaxing)
 .debug_str     0x00002281       0x10 /opt/altera/13.0sp1/nios2eds/bin/gnu/H-i686-pc-linux-gnu/bin/../lib/gcc/nios2-elf/4.1.2/mno-hw-mul/libgcc.a(_fpcmp_parts_df.o)
                                0x1cb (size before relaxing)
 .debug_str     0x00002291       0xd7 ../../bsp/mpsoc_hello_ucosii_q2//libucosii_bsp.a(alt_alarm_start.o)
                                0x254 (size before relaxing)
 .debug_str     0x00002368       0x8d ../../bsp/mpsoc_hello_ucosii_q2//libucosii_bsp.a(alt_close.o)
                                0x211 (size before relaxing)
 .debug_str     0x000023f5       0x61 ../../bsp/mpsoc_hello_ucosii_q2//libucosii_bsp.a(alt_dev.o)
                                0x37f (size before relaxing)
 .debug_str     0x00002456       0x14 ../../bsp/mpsoc_hello_ucosii_q2//libucosii_bsp.a(alt_errno.o)
                                 0xfa (size before relaxing)
 .debug_str     0x0000246a       0x14 ../../bsp/mpsoc_hello_ucosii_q2//libucosii_bsp.a(alt_fstat.o)
                                0x2f2 (size before relaxing)
 .debug_str     0x0000247e       0x1c ../../bsp/mpsoc_hello_ucosii_q2//libucosii_bsp.a(alt_isatty.o)
                                0x2fa (size before relaxing)
 .debug_str     0x0000249a       0xe9 ../../bsp/mpsoc_hello_ucosii_q2//libucosii_bsp.a(alt_load.o)
                                0x1c7 (size before relaxing)
 .debug_str     0x00002583       0x14 ../../bsp/mpsoc_hello_ucosii_q2//libucosii_bsp.a(alt_lseek.o)
                                0x217 (size before relaxing)
 .debug_str     0x00002597       0x5d ../../bsp/mpsoc_hello_ucosii_q2//libucosii_bsp.a(alt_main.o)
                                0x236 (size before relaxing)
 .debug_str     0x000025f4       0x13 ../../bsp/mpsoc_hello_ucosii_q2//libucosii_bsp.a(alt_read.o)
                                0x2fd (size before relaxing)
 .debug_str     0x00002607       0x28 ../../bsp/mpsoc_hello_ucosii_q2//libucosii_bsp.a(alt_release_fd.o)
                                0x1fb (size before relaxing)
 .debug_str     0x0000262f       0x66 ../../bsp/mpsoc_hello_ucosii_q2//libucosii_bsp.a(alt_sbrk.o)
                                0x1b2 (size before relaxing)
 .debug_str     0x00002695       0x4a ../../bsp/mpsoc_hello_ucosii_q2//libucosii_bsp.a(alt_tick.o)
                                0x235 (size before relaxing)
 .debug_str     0x000026df       0x14 ../../bsp/mpsoc_hello_ucosii_q2//libucosii_bsp.a(alt_write.o)
                                0x2fe (size before relaxing)
 .debug_str     0x000026f3      0x23f ../../bsp/mpsoc_hello_ucosii_q2//libucosii_bsp.a(alt_env_lock.o)
                                0x77d (size before relaxing)
 .debug_str     0x00002932       0x54 ../../bsp/mpsoc_hello_ucosii_q2//libucosii_bsp.a(alt_malloc_lock.o)
                                0x7df (size before relaxing)
 .debug_str     0x00002986      0x5d0 ../../bsp/mpsoc_hello_ucosii_q2//libucosii_bsp.a(os_core.o)
                                0xa5f (size before relaxing)
 .debug_str     0x00002f56      0x2e5 ../../bsp/mpsoc_hello_ucosii_q2//libucosii_bsp.a(os_dbg.o)
                                0x9ce (size before relaxing)
 .debug_str     0x0000323b      0x136 ../../bsp/mpsoc_hello_ucosii_q2//libucosii_bsp.a(os_flag.o)
                                0x5c8 (size before relaxing)
 .debug_str     0x00003371       0xcf ../../bsp/mpsoc_hello_ucosii_q2//libucosii_bsp.a(os_mem.o)
                                0x2d1 (size before relaxing)
 .debug_str     0x00003440       0xc0 ../../bsp/mpsoc_hello_ucosii_q2//libucosii_bsp.a(os_q.o)
                                0x54b (size before relaxing)
 .debug_str     0x00003500       0x77 ../../bsp/mpsoc_hello_ucosii_q2//libucosii_bsp.a(os_sem.o)
                                0x4d4 (size before relaxing)
 .debug_str     0x00003577      0x118 ../../bsp/mpsoc_hello_ucosii_q2//libucosii_bsp.a(os_task.o)
                                0x5d7 (size before relaxing)
 .debug_str     0x0000368f       0x6d ../../bsp/mpsoc_hello_ucosii_q2//libucosii_bsp.a(os_time.o)
                                0x477 (size before relaxing)
 .debug_str     0x000036fc      0x111 ../../bsp/mpsoc_hello_ucosii_q2//libucosii_bsp.a(os_tmr.o)
                                0x434 (size before relaxing)
 .debug_str     0x0000380d      0x1fd ../../bsp/mpsoc_hello_ucosii_q2//libucosii_bsp.a(alt_sys_init.o)
                                0x523 (size before relaxing)
 .debug_str     0x00003a0a       0xac ../../bsp/mpsoc_hello_ucosii_q2//libucosii_bsp.a(altera_avalon_jtag_uart_fd.o)
                                0x46a (size before relaxing)
 .debug_str     0x00003ab6       0xe1 ../../bsp/mpsoc_hello_ucosii_q2//libucosii_bsp.a(altera_avalon_jtag_uart_init.o)
                                0x431 (size before relaxing)
 .debug_str     0x00003b97       0x4a ../../bsp/mpsoc_hello_ucosii_q2//libucosii_bsp.a(altera_avalon_jtag_uart_ioctl.o)
                                0x359 (size before relaxing)
 .debug_str     0x00003be1       0x63 ../../bsp/mpsoc_hello_ucosii_q2//libucosii_bsp.a(altera_avalon_jtag_uart_read.o)
                                0x3cc (size before relaxing)
 .debug_str     0x00003c44       0x4a ../../bsp/mpsoc_hello_ucosii_q2//libucosii_bsp.a(altera_avalon_jtag_uart_write.o)
                                0x3cd (size before relaxing)
 .debug_str     0x00003c8e       0xf8 ../../bsp/mpsoc_hello_ucosii_q2//libucosii_bsp.a(altera_avalon_mutex.o)
                                0x338 (size before relaxing)
 .debug_str     0x00003d86       0x66 ../../bsp/mpsoc_hello_ucosii_q2//libucosii_bsp.a(altera_avalon_timer_sc.o)
                                0x21a (size before relaxing)
 .debug_str     0x00003dec       0x34 ../../bsp/mpsoc_hello_ucosii_q2//libucosii_bsp.a(alt_dcache_flush_all.o)
                                0x10a (size before relaxing)
 .debug_str     0x00003e20       0x42 ../../bsp/mpsoc_hello_ucosii_q2//libucosii_bsp.a(alt_dev_llist_insert.o)
                                0x181 (size before relaxing)
 .debug_str     0x00003e62       0x48 ../../bsp/mpsoc_hello_ucosii_q2//libucosii_bsp.a(alt_do_ctors.o)
                                 0x9a (size before relaxing)
 .debug_str     0x00003eaa       0x4c ../../bsp/mpsoc_hello_ucosii_q2//libucosii_bsp.a(alt_do_dtors.o)
                                 0x99 (size before relaxing)
 .debug_str     0x00003ef6       0x24 ../../bsp/mpsoc_hello_ucosii_q2//libucosii_bsp.a(alt_find_dev.o)
                                0x1f2 (size before relaxing)
 .debug_str     0x00003f1a       0x34 ../../bsp/mpsoc_hello_ucosii_q2//libucosii_bsp.a(alt_icache_flush_all.o)
                                0x10a (size before relaxing)
 .debug_str     0x00003f4e       0x56 ../../bsp/mpsoc_hello_ucosii_q2//libucosii_bsp.a(alt_io_redirect.o)
                                0x31c (size before relaxing)
 .debug_str     0x00003fa4       0x77 ../../bsp/mpsoc_hello_ucosii_q2//libucosii_bsp.a(alt_irq_register.o)
                                0x1e5 (size before relaxing)
 .debug_str     0x0000401b       0x17 ../../bsp/mpsoc_hello_ucosii_q2//libucosii_bsp.a(alt_irq_vars.o)
                                0x104 (size before relaxing)
 .debug_str     0x00004032       0x29 ../../bsp/mpsoc_hello_ucosii_q2//libucosii_bsp.a(alt_open.o)
                                0x249 (size before relaxing)
 .debug_str     0x0000405b       0x3b ../../bsp/mpsoc_hello_ucosii_q2//libucosii_bsp.a(altera_nios2_qsys_irq.o)
                                0x13a (size before relaxing)
 .debug_str     0x00004096       0xde ../../bsp/mpsoc_hello_ucosii_q2//libucosii_bsp.a(os_cpu_c.o)
                                0x7fb (size before relaxing)
 .debug_str     0x00004174       0x26 ../../bsp/mpsoc_hello_ucosii_q2//libucosii_bsp.a(alt_find_file.o)
                                0x200 (size before relaxing)
 .debug_str     0x0000419a       0x30 ../../bsp/mpsoc_hello_ucosii_q2//libucosii_bsp.a(alt_get_fd.o)
                                0x29e (size before relaxing)
 .debug_str     0x000041ca       0x3a ../../bsp/mpsoc_hello_ucosii_q2//libucosii_bsp.a(alt_irq_handler.o)
                                0x195 (size before relaxing)
 .debug_str     0x00004204       0x3e /opt/altera/13.0sp1/nios2eds/bin/gnu/H-i686-pc-linux-gnu/bin/../lib/gcc/nios2-elf/4.1.2/../../../../nios2-elf/lib/mno-hw-mul/libc.a(lib_a-atexit.o)
                                0x1d2 (size before relaxing)
 .debug_str     0x00004242       0x3c /opt/altera/13.0sp1/nios2eds/bin/gnu/H-i686-pc-linux-gnu/bin/../lib/gcc/nios2-elf/4.1.2/../../../../nios2-elf/lib/mno-hw-mul/libc.a(lib_a-exit.o)
                                0x51f (size before relaxing)
 .debug_str     0x0000427e       0x45 /opt/altera/13.0sp1/nios2eds/bin/gnu/H-i686-pc-linux-gnu/bin/../lib/gcc/nios2-elf/4.1.2/../../../../nios2-elf/lib/mno-hw-mul/libc.a(lib_a-memcmp.o)
                                0x17d (size before relaxing)
 .debug_str     0x000042c3       0x54 /opt/altera/13.0sp1/nios2eds/bin/gnu/H-i686-pc-linux-gnu/bin/../lib/gcc/nios2-elf/4.1.2/../../../../nios2-elf/lib/mno-hw-mul/libc.a(lib_a-__atexit.o)
                                0x537 (size before relaxing)
 .debug_str     0x00004317       0x7e /opt/altera/13.0sp1/nios2eds/bin/gnu/H-i686-pc-linux-gnu/bin/../lib/gcc/nios2-elf/4.1.2/../../../../nios2-elf/lib/mno-hw-mul/libc.a(lib_a-__call_atexit.o)
                                0x561 (size before relaxing)
 .debug_str     0x00004395        0xd /opt/altera/13.0sp1/nios2eds/bin/gnu/H-i686-pc-linux-gnu/bin/../lib/gcc/nios2-elf/4.1.2/mno-hw-mul/libgcc.a(_fixunsdfsi.o)
                                0x170 (size before relaxing)
 .debug_str     0x000043a2       0x2a ../../bsp/mpsoc_hello_ucosii_q2//libucosii_bsp.a(alt_exit.o)
                                0x169 (size before relaxing)

.debug_loc      0x00000000    0x1118b
 *(.debug_loc)
 .debug_loc     0x00000000      0x46e obj/default/src/hello_ucosii.o
 .debug_loc     0x0000046e      0x136 obj/default/src/imageProcessing.o
 .debug_loc     0x000005a4      0x1df /opt/altera/13.0sp1/nios2eds/bin/gnu/H-i686-pc-linux-gnu/bin/../lib/gcc/nios2-elf/4.1.2/mno-hw-mul/libgcc.a(_div_df.o)
 .debug_loc     0x00000783       0x5b /opt/altera/13.0sp1/nios2eds/bin/gnu/H-i686-pc-linux-gnu/bin/../lib/gcc/nios2-elf/4.1.2/mno-hw-mul/libgcc.a(_usi_to_df.o)
 .debug_loc     0x000007de      0x1d2 /opt/altera/13.0sp1/nios2eds/bin/gnu/H-i686-pc-linux-gnu/bin/../lib/gcc/nios2-elf/4.1.2/mno-hw-mul/libgcc.a(lib2-divmod.o)
 .debug_loc     0x000009b0       0x4f /opt/altera/13.0sp1/nios2eds/bin/gnu/H-i686-pc-linux-gnu/bin/../lib/gcc/nios2-elf/4.1.2/mno-hw-mul/libgcc.a(lib2-mul.o)
 .debug_loc     0x000009ff       0x1e /opt/altera/13.0sp1/nios2eds/bin/gnu/H-i686-pc-linux-gnu/bin/../lib/gcc/nios2-elf/4.1.2/mno-hw-mul/libgcc.a(_clzsi2.o)
 .debug_loc     0x00000a1d      0x184 /opt/altera/13.0sp1/nios2eds/bin/gnu/H-i686-pc-linux-gnu/bin/../lib/gcc/nios2-elf/4.1.2/mno-hw-mul/libgcc.a(_pack_df.o)
 .debug_loc     0x00000ba1       0xe5 /opt/altera/13.0sp1/nios2eds/bin/gnu/H-i686-pc-linux-gnu/bin/../lib/gcc/nios2-elf/4.1.2/mno-hw-mul/libgcc.a(_unpack_df.o)
 .debug_loc     0x00000c86       0xcb /opt/altera/13.0sp1/nios2eds/bin/gnu/H-i686-pc-linux-gnu/bin/../lib/gcc/nios2-elf/4.1.2/../../../../nios2-elf/lib/mno-hw-mul/libc.a(lib_a-printf.o)
 .debug_loc     0x00000d51       0x44 /opt/altera/13.0sp1/nios2eds/bin/gnu/H-i686-pc-linux-gnu/bin/../lib/gcc/nios2-elf/4.1.2/../../../../nios2-elf/lib/mno-hw-mul/libc.a(lib_a-putchar.o)
 .debug_loc     0x00000d95       0xa2 /opt/altera/13.0sp1/nios2eds/bin/gnu/H-i686-pc-linux-gnu/bin/../lib/gcc/nios2-elf/4.1.2/../../../../nios2-elf/lib/mno-hw-mul/libc.a(lib_a-puts.o)
 .debug_loc     0x00000e37       0x3c /opt/altera/13.0sp1/nios2eds/bin/gnu/H-i686-pc-linux-gnu/bin/../lib/gcc/nios2-elf/4.1.2/../../../../nios2-elf/lib/mno-hw-mul/libc.a(lib_a-strlen.o)
 .debug_loc     0x00000e73     0x1dc0 /opt/altera/13.0sp1/nios2eds/bin/gnu/H-i686-pc-linux-gnu/bin/../lib/gcc/nios2-elf/4.1.2/../../../../nios2-elf/lib/mno-hw-mul/libc.a(lib_a-vfprintf.o)
 .debug_loc     0x00002c33       0x7c /opt/altera/13.0sp1/nios2eds/bin/gnu/H-i686-pc-linux-gnu/bin/../lib/gcc/nios2-elf/4.1.2/../../../../nios2-elf/lib/mno-hw-mul/libc.a(lib_a-wsetup.o)
 .debug_loc     0x00002caf     0x1da7 /opt/altera/13.0sp1/nios2eds/bin/gnu/H-i686-pc-linux-gnu/bin/../lib/gcc/nios2-elf/4.1.2/../../../../nios2-elf/lib/mno-hw-mul/libc.a(lib_a-dtoa.o)
 .debug_loc     0x00004a56      0x1f6 /opt/altera/13.0sp1/nios2eds/bin/gnu/H-i686-pc-linux-gnu/bin/../lib/gcc/nios2-elf/4.1.2/../../../../nios2-elf/lib/mno-hw-mul/libc.a(lib_a-fflush.o)
 .debug_loc     0x00004c4c      0x1e1 /opt/altera/13.0sp1/nios2eds/bin/gnu/H-i686-pc-linux-gnu/bin/../lib/gcc/nios2-elf/4.1.2/../../../../nios2-elf/lib/mno-hw-mul/libc.a(lib_a-findfp.o)
 .debug_loc     0x00004e2d      0x4a7 /opt/altera/13.0sp1/nios2eds/bin/gnu/H-i686-pc-linux-gnu/bin/../lib/gcc/nios2-elf/4.1.2/../../../../nios2-elf/lib/mno-hw-mul/libc.a(lib_a-freer.o)
 .debug_loc     0x000052d4      0x4e4 /opt/altera/13.0sp1/nios2eds/bin/gnu/H-i686-pc-linux-gnu/bin/../lib/gcc/nios2-elf/4.1.2/../../../../nios2-elf/lib/mno-hw-mul/libc.a(lib_a-fvwrite.o)
 .debug_loc     0x000057b8      0x1d2 /opt/altera/13.0sp1/nios2eds/bin/gnu/H-i686-pc-linux-gnu/bin/../lib/gcc/nios2-elf/4.1.2/../../../../nios2-elf/lib/mno-hw-mul/libc.a(lib_a-fwalk.o)
 .debug_loc     0x0000598a       0xe1 /opt/altera/13.0sp1/nios2eds/bin/gnu/H-i686-pc-linux-gnu/bin/../lib/gcc/nios2-elf/4.1.2/../../../../nios2-elf/lib/mno-hw-mul/libc.a(lib_a-locale.o)
 .debug_loc     0x00005a6b      0x11c /opt/altera/13.0sp1/nios2eds/bin/gnu/H-i686-pc-linux-gnu/bin/../lib/gcc/nios2-elf/4.1.2/../../../../nios2-elf/lib/mno-hw-mul/libc.a(lib_a-makebuf.o)
 .debug_loc     0x00005b87      0xaeb /opt/altera/13.0sp1/nios2eds/bin/gnu/H-i686-pc-linux-gnu/bin/../lib/gcc/nios2-elf/4.1.2/../../../../nios2-elf/lib/mno-hw-mul/libc.a(lib_a-mallocr.o)
 .debug_loc     0x00006672      0x106 /opt/altera/13.0sp1/nios2eds/bin/gnu/H-i686-pc-linux-gnu/bin/../lib/gcc/nios2-elf/4.1.2/../../../../nios2-elf/lib/mno-hw-mul/libc.a(lib_a-memchr.o)
 .debug_loc     0x00006778       0xca /opt/altera/13.0sp1/nios2eds/bin/gnu/H-i686-pc-linux-gnu/bin/../lib/gcc/nios2-elf/4.1.2/../../../../nios2-elf/lib/mno-hw-mul/libc.a(lib_a-memcpy.o)
 .debug_loc     0x00006842      0x117 /opt/altera/13.0sp1/nios2eds/bin/gnu/H-i686-pc-linux-gnu/bin/../lib/gcc/nios2-elf/4.1.2/../../../../nios2-elf/lib/mno-hw-mul/libc.a(lib_a-memmove.o)
 .debug_loc     0x00006959       0xa1 /opt/altera/13.0sp1/nios2eds/bin/gnu/H-i686-pc-linux-gnu/bin/../lib/gcc/nios2-elf/4.1.2/../../../../nios2-elf/lib/mno-hw-mul/libc.a(lib_a-memset.o)
 .debug_loc     0x000069fa     0x1547 /opt/altera/13.0sp1/nios2eds/bin/gnu/H-i686-pc-linux-gnu/bin/../lib/gcc/nios2-elf/4.1.2/../../../../nios2-elf/lib/mno-hw-mul/libc.a(lib_a-mprec.o)
 .debug_loc     0x00007f41      0x20d /opt/altera/13.0sp1/nios2eds/bin/gnu/H-i686-pc-linux-gnu/bin/../lib/gcc/nios2-elf/4.1.2/../../../../nios2-elf/lib/mno-hw-mul/libc.a(lib_a-putc.o)
 .debug_loc     0x0000814e      0x8c0 /opt/altera/13.0sp1/nios2eds/bin/gnu/H-i686-pc-linux-gnu/bin/../lib/gcc/nios2-elf/4.1.2/../../../../nios2-elf/lib/mno-hw-mul/libc.a(lib_a-reallocr.o)
 .debug_loc     0x00008a0e       0x36 /opt/altera/13.0sp1/nios2eds/bin/gnu/H-i686-pc-linux-gnu/bin/../lib/gcc/nios2-elf/4.1.2/../../../../nios2-elf/lib/mno-hw-mul/libc.a(lib_a-s_isinfd.o)
 .debug_loc     0x00008a44       0x18 /opt/altera/13.0sp1/nios2eds/bin/gnu/H-i686-pc-linux-gnu/bin/../lib/gcc/nios2-elf/4.1.2/../../../../nios2-elf/lib/mno-hw-mul/libc.a(lib_a-s_isnand.o)
 .debug_loc     0x00008a5c       0x5b /opt/altera/13.0sp1/nios2eds/bin/gnu/H-i686-pc-linux-gnu/bin/../lib/gcc/nios2-elf/4.1.2/../../../../nios2-elf/lib/mno-hw-mul/libc.a(lib_a-sbrkr.o)
 .debug_loc     0x00008ab7      0x21f /opt/altera/13.0sp1/nios2eds/bin/gnu/H-i686-pc-linux-gnu/bin/../lib/gcc/nios2-elf/4.1.2/../../../../nios2-elf/lib/mno-hw-mul/libc.a(lib_a-stdio.o)
 .debug_loc     0x00008cd6       0x65 /opt/altera/13.0sp1/nios2eds/bin/gnu/H-i686-pc-linux-gnu/bin/../lib/gcc/nios2-elf/4.1.2/../../../../nios2-elf/lib/mno-hw-mul/libc.a(lib_a-strcmp.o)
 .debug_loc     0x00008d3b      0x157 /opt/altera/13.0sp1/nios2eds/bin/gnu/H-i686-pc-linux-gnu/bin/../lib/gcc/nios2-elf/4.1.2/../../../../nios2-elf/lib/mno-hw-mul/libc.a(lib_a-wbuf.o)
 .debug_loc     0x00008e92       0x97 /opt/altera/13.0sp1/nios2eds/bin/gnu/H-i686-pc-linux-gnu/bin/../lib/gcc/nios2-elf/4.1.2/../../../../nios2-elf/lib/mno-hw-mul/libc.a(lib_a-writer.o)
 .debug_loc     0x00008f29       0xff /opt/altera/13.0sp1/nios2eds/bin/gnu/H-i686-pc-linux-gnu/bin/../lib/gcc/nios2-elf/4.1.2/../../../../nios2-elf/lib/mno-hw-mul/libc.a(lib_a-callocr.o)
 .debug_loc     0x00009028       0x5b /opt/altera/13.0sp1/nios2eds/bin/gnu/H-i686-pc-linux-gnu/bin/../lib/gcc/nios2-elf/4.1.2/../../../../nios2-elf/lib/mno-hw-mul/libc.a(lib_a-closer.o)
 .debug_loc     0x00009083       0xe4 /opt/altera/13.0sp1/nios2eds/bin/gnu/H-i686-pc-linux-gnu/bin/../lib/gcc/nios2-elf/4.1.2/../../../../nios2-elf/lib/mno-hw-mul/libc.a(lib_a-fclose.o)
 .debug_loc     0x00009167       0x79 /opt/altera/13.0sp1/nios2eds/bin/gnu/H-i686-pc-linux-gnu/bin/../lib/gcc/nios2-elf/4.1.2/../../../../nios2-elf/lib/mno-hw-mul/libc.a(lib_a-fstatr.o)
 .debug_loc     0x000091e0       0x5b /opt/altera/13.0sp1/nios2eds/bin/gnu/H-i686-pc-linux-gnu/bin/../lib/gcc/nios2-elf/4.1.2/../../../../nios2-elf/lib/mno-hw-mul/libc.a(lib_a-isattyr.o)
 .debug_loc     0x0000923b       0x97 /opt/altera/13.0sp1/nios2eds/bin/gnu/H-i686-pc-linux-gnu/bin/../lib/gcc/nios2-elf/4.1.2/../../../../nios2-elf/lib/mno-hw-mul/libc.a(lib_a-lseekr.o)
 .debug_loc     0x000092d2       0x97 /opt/altera/13.0sp1/nios2eds/bin/gnu/H-i686-pc-linux-gnu/bin/../lib/gcc/nios2-elf/4.1.2/../../../../nios2-elf/lib/mno-hw-mul/libc.a(lib_a-readr.o)
 .debug_loc     0x00009369      0xc12 /opt/altera/13.0sp1/nios2eds/bin/gnu/H-i686-pc-linux-gnu/bin/../lib/gcc/nios2-elf/4.1.2/mno-hw-mul/libgcc.a(_udivdi3.o)
 .debug_loc     0x00009f7b      0xbcc /opt/altera/13.0sp1/nios2eds/bin/gnu/H-i686-pc-linux-gnu/bin/../lib/gcc/nios2-elf/4.1.2/mno-hw-mul/libgcc.a(_umoddi3.o)
 .debug_loc     0x0000ab47      0x47a /opt/altera/13.0sp1/nios2eds/bin/gnu/H-i686-pc-linux-gnu/bin/../lib/gcc/nios2-elf/4.1.2/mno-hw-mul/libgcc.a(_addsub_df.o)
 .debug_loc     0x0000afc1      0x3b4 /opt/altera/13.0sp1/nios2eds/bin/gnu/H-i686-pc-linux-gnu/bin/../lib/gcc/nios2-elf/4.1.2/mno-hw-mul/libgcc.a(_mul_df.o)
 .debug_loc     0x0000b375       0x70 /opt/altera/13.0sp1/nios2eds/bin/gnu/H-i686-pc-linux-gnu/bin/../lib/gcc/nios2-elf/4.1.2/mno-hw-mul/libgcc.a(_eq_df.o)
 .debug_loc     0x0000b3e5       0x70 /opt/altera/13.0sp1/nios2eds/bin/gnu/H-i686-pc-linux-gnu/bin/../lib/gcc/nios2-elf/4.1.2/mno-hw-mul/libgcc.a(_ne_df.o)
 .debug_loc     0x0000b455       0x70 /opt/altera/13.0sp1/nios2eds/bin/gnu/H-i686-pc-linux-gnu/bin/../lib/gcc/nios2-elf/4.1.2/mno-hw-mul/libgcc.a(_gt_df.o)
 .debug_loc     0x0000b4c5       0x70 /opt/altera/13.0sp1/nios2eds/bin/gnu/H-i686-pc-linux-gnu/bin/../lib/gcc/nios2-elf/4.1.2/mno-hw-mul/libgcc.a(_ge_df.o)
 .debug_loc     0x0000b535       0x70 /opt/altera/13.0sp1/nios2eds/bin/gnu/H-i686-pc-linux-gnu/bin/../lib/gcc/nios2-elf/4.1.2/mno-hw-mul/libgcc.a(_lt_df.o)
 .debug_loc     0x0000b5a5       0x9a /opt/altera/13.0sp1/nios2eds/bin/gnu/H-i686-pc-linux-gnu/bin/../lib/gcc/nios2-elf/4.1.2/mno-hw-mul/libgcc.a(_si_to_df.o)
 .debug_loc     0x0000b63f       0x8b /opt/altera/13.0sp1/nios2eds/bin/gnu/H-i686-pc-linux-gnu/bin/../lib/gcc/nios2-elf/4.1.2/mno-hw-mul/libgcc.a(_df_to_si.o)
 .debug_loc     0x0000b6ca      0x103 /opt/altera/13.0sp1/nios2eds/bin/gnu/H-i686-pc-linux-gnu/bin/../lib/gcc/nios2-elf/4.1.2/mno-hw-mul/libgcc.a(_muldi3.o)
 .debug_loc     0x0000b7cd       0x31 ../../bsp/mpsoc_hello_ucosii_q2//libucosii_bsp.a(alt_alarm_start.o)
 .debug_loc     0x0000b7fe       0x8f ../../bsp/mpsoc_hello_ucosii_q2//libucosii_bsp.a(alt_close.o)
 .debug_loc     0x0000b88d       0xbb ../../bsp/mpsoc_hello_ucosii_q2//libucosii_bsp.a(alt_fstat.o)
 .debug_loc     0x0000b948       0x7d ../../bsp/mpsoc_hello_ucosii_q2//libucosii_bsp.a(alt_isatty.o)
 .debug_loc     0x0000b9c5       0x1f ../../bsp/mpsoc_hello_ucosii_q2//libucosii_bsp.a(alt_load.o)
 .debug_loc     0x0000b9e4      0x165 ../../bsp/mpsoc_hello_ucosii_q2//libucosii_bsp.a(alt_lseek.o)
 .debug_loc     0x0000bb49       0x1f ../../bsp/mpsoc_hello_ucosii_q2//libucosii_bsp.a(alt_main.o)
 .debug_loc     0x0000bb68      0x102 ../../bsp/mpsoc_hello_ucosii_q2//libucosii_bsp.a(alt_read.o)
 .debug_loc     0x0000bc6a       0x48 ../../bsp/mpsoc_hello_ucosii_q2//libucosii_bsp.a(alt_release_fd.o)
 .debug_loc     0x0000bcb2       0x13 ../../bsp/mpsoc_hello_ucosii_q2//libucosii_bsp.a(alt_sbrk.o)
 .debug_loc     0x0000bcc5       0x71 ../../bsp/mpsoc_hello_ucosii_q2//libucosii_bsp.a(alt_tick.o)
 .debug_loc     0x0000bd36      0x102 ../../bsp/mpsoc_hello_ucosii_q2//libucosii_bsp.a(alt_write.o)
 .debug_loc     0x0000be38       0x64 ../../bsp/mpsoc_hello_ucosii_q2//libucosii_bsp.a(alt_env_lock.o)
 .debug_loc     0x0000be9c       0xa0 ../../bsp/mpsoc_hello_ucosii_q2//libucosii_bsp.a(alt_malloc_lock.o)
 .debug_loc     0x0000bf3c      0xa93 ../../bsp/mpsoc_hello_ucosii_q2//libucosii_bsp.a(os_core.o)
 .debug_loc     0x0000c9cf      0xc39 ../../bsp/mpsoc_hello_ucosii_q2//libucosii_bsp.a(os_flag.o)
 .debug_loc     0x0000d608      0x32f ../../bsp/mpsoc_hello_ucosii_q2//libucosii_bsp.a(os_mem.o)
 .debug_loc     0x0000d937      0x816 ../../bsp/mpsoc_hello_ucosii_q2//libucosii_bsp.a(os_q.o)
 .debug_loc     0x0000e14d      0x3c4 ../../bsp/mpsoc_hello_ucosii_q2//libucosii_bsp.a(os_sem.o)
 .debug_loc     0x0000e511      0xb22 ../../bsp/mpsoc_hello_ucosii_q2//libucosii_bsp.a(os_task.o)
 .debug_loc     0x0000f033      0x2bc ../../bsp/mpsoc_hello_ucosii_q2//libucosii_bsp.a(os_time.o)
 .debug_loc     0x0000f2ef      0x8c5 ../../bsp/mpsoc_hello_ucosii_q2//libucosii_bsp.a(os_tmr.o)
 .debug_loc     0x0000fbb4       0xb7 ../../bsp/mpsoc_hello_ucosii_q2//libucosii_bsp.a(alt_sys_init.o)
 .debug_loc     0x0000fc6b       0xbe ../../bsp/mpsoc_hello_ucosii_q2//libucosii_bsp.a(altera_avalon_jtag_uart_fd.o)
 .debug_loc     0x0000fd29      0x24b ../../bsp/mpsoc_hello_ucosii_q2//libucosii_bsp.a(altera_avalon_jtag_uart_init.o)
 .debug_loc     0x0000ff74       0x7b ../../bsp/mpsoc_hello_ucosii_q2//libucosii_bsp.a(altera_avalon_jtag_uart_ioctl.o)
 .debug_loc     0x0000ffef      0x190 ../../bsp/mpsoc_hello_ucosii_q2//libucosii_bsp.a(altera_avalon_jtag_uart_read.o)
 .debug_loc     0x0001017f      0x167 ../../bsp/mpsoc_hello_ucosii_q2//libucosii_bsp.a(altera_avalon_jtag_uart_write.o)
 .debug_loc     0x000102e6      0x14a ../../bsp/mpsoc_hello_ucosii_q2//libucosii_bsp.a(altera_avalon_mutex.o)
 .debug_loc     0x00010430       0xba ../../bsp/mpsoc_hello_ucosii_q2//libucosii_bsp.a(altera_avalon_timer_sc.o)
 .debug_loc     0x000104ea       0x5b ../../bsp/mpsoc_hello_ucosii_q2//libucosii_bsp.a(alt_dev_llist_insert.o)
 .debug_loc     0x00010545       0x32 ../../bsp/mpsoc_hello_ucosii_q2//libucosii_bsp.a(alt_do_ctors.o)
 .debug_loc     0x00010577       0x32 ../../bsp/mpsoc_hello_ucosii_q2//libucosii_bsp.a(alt_do_dtors.o)
 .debug_loc     0x000105a9       0xef ../../bsp/mpsoc_hello_ucosii_q2//libucosii_bsp.a(alt_find_dev.o)
 .debug_loc     0x00010698      0x15a ../../bsp/mpsoc_hello_ucosii_q2//libucosii_bsp.a(alt_io_redirect.o)
 .debug_loc     0x000107f2       0x52 ../../bsp/mpsoc_hello_ucosii_q2//libucosii_bsp.a(alt_irq_register.o)
 .debug_loc     0x00010844      0x1fe ../../bsp/mpsoc_hello_ucosii_q2//libucosii_bsp.a(alt_open.o)
 .debug_loc     0x00010a42       0xc6 ../../bsp/mpsoc_hello_ucosii_q2//libucosii_bsp.a(os_cpu_c.o)
 .debug_loc     0x00010b08       0x9a ../../bsp/mpsoc_hello_ucosii_q2//libucosii_bsp.a(alt_find_file.o)
 .debug_loc     0x00010ba2       0x8f ../../bsp/mpsoc_hello_ucosii_q2//libucosii_bsp.a(alt_get_fd.o)
 .debug_loc     0x00010c31       0x79 ../../bsp/mpsoc_hello_ucosii_q2//libucosii_bsp.a(alt_irq_handler.o)
 .debug_loc     0x00010caa       0x1e /opt/altera/13.0sp1/nios2eds/bin/gnu/H-i686-pc-linux-gnu/bin/../lib/gcc/nios2-elf/4.1.2/../../../../nios2-elf/lib/mno-hw-mul/libc.a(lib_a-atexit.o)
 .debug_loc     0x00010cc8       0x3d /opt/altera/13.0sp1/nios2eds/bin/gnu/H-i686-pc-linux-gnu/bin/../lib/gcc/nios2-elf/4.1.2/../../../../nios2-elf/lib/mno-hw-mul/libc.a(lib_a-exit.o)
 .debug_loc     0x00010d05      0x114 /opt/altera/13.0sp1/nios2eds/bin/gnu/H-i686-pc-linux-gnu/bin/../lib/gcc/nios2-elf/4.1.2/../../../../nios2-elf/lib/mno-hw-mul/libc.a(lib_a-memcmp.o)
 .debug_loc     0x00010e19      0x120 /opt/altera/13.0sp1/nios2eds/bin/gnu/H-i686-pc-linux-gnu/bin/../lib/gcc/nios2-elf/4.1.2/../../../../nios2-elf/lib/mno-hw-mul/libc.a(lib_a-__atexit.o)
 .debug_loc     0x00010f39      0x1cb /opt/altera/13.0sp1/nios2eds/bin/gnu/H-i686-pc-linux-gnu/bin/../lib/gcc/nios2-elf/4.1.2/../../../../nios2-elf/lib/mno-hw-mul/libc.a(lib_a-__call_atexit.o)
 .debug_loc     0x00011104       0x87 /opt/altera/13.0sp1/nios2eds/bin/gnu/H-i686-pc-linux-gnu/bin/../lib/gcc/nios2-elf/4.1.2/mno-hw-mul/libgcc.a(_fixunsdfsi.o)

.debug_macinfo
 *(.debug_macinfo)

.debug_weaknames
 *(.debug_weaknames)

.debug_funcnames
 *(.debug_funcnames)

.debug_typenames
 *(.debug_typenames)

.debug_varnames
 *(.debug_varnames)

.debug_alt_sim_info
                0x00000000       0x10
 *(.debug_alt_sim_info)
 .debug_alt_sim_info
                0x00000000       0x10 ../../bsp/mpsoc_hello_ucosii_q2//obj/HAL/src/crt0.o
                0x00100000                __alt_data_end = 0x100000
                0x00100000                PROVIDE (__alt_stack_pointer, __alt_data_end)
                0x000bb048                PROVIDE (__alt_stack_limit, __alt_stack_base)
                0x000bb048                PROVIDE (__alt_heap_start, end)
                0x00100000                PROVIDE (__alt_heap_limit, 0x100000)
OUTPUT(hello_ucosii_q2_int.elf elf32-littlenios2)

.debug_ranges   0x00000000     0x10c0
 .debug_ranges  0x00000000       0x20 ../../bsp/mpsoc_hello_ucosii_q2//obj/HAL/src/crt0.o
 .debug_ranges  0x00000020       0x48 obj/default/src/hello_ucosii.o
 .debug_ranges  0x00000068       0x18 obj/default/src/imageProcessing.o
 .debug_ranges  0x00000080       0x50 /opt/altera/13.0sp1/nios2eds/bin/gnu/H-i686-pc-linux-gnu/bin/../lib/gcc/nios2-elf/4.1.2/mno-hw-mul/libgcc.a(_div_df.o)
 .debug_ranges  0x000000d0       0x18 /opt/altera/13.0sp1/nios2eds/bin/gnu/H-i686-pc-linux-gnu/bin/../lib/gcc/nios2-elf/4.1.2/mno-hw-mul/libgcc.a(_usi_to_df.o)
 .debug_ranges  0x000000e8       0x28 /opt/altera/13.0sp1/nios2eds/bin/gnu/H-i686-pc-linux-gnu/bin/../lib/gcc/nios2-elf/4.1.2/mno-hw-mul/libgcc.a(_clzsi2.o)
 .debug_ranges  0x00000110       0x28 /opt/altera/13.0sp1/nios2eds/bin/gnu/H-i686-pc-linux-gnu/bin/../lib/gcc/nios2-elf/4.1.2/mno-hw-mul/libgcc.a(_pack_df.o)
 .debug_ranges  0x00000138      0x168 /opt/altera/13.0sp1/nios2eds/bin/gnu/H-i686-pc-linux-gnu/bin/../lib/gcc/nios2-elf/4.1.2/../../../../nios2-elf/lib/mno-hw-mul/libc.a(lib_a-vfprintf.o)
 .debug_ranges  0x000002a0       0x20 /opt/altera/13.0sp1/nios2eds/bin/gnu/H-i686-pc-linux-gnu/bin/../lib/gcc/nios2-elf/4.1.2/../../../../nios2-elf/lib/mno-hw-mul/libc.a(lib_a-fflush.o)
 .debug_ranges  0x000002c0       0x28 /opt/altera/13.0sp1/nios2eds/bin/gnu/H-i686-pc-linux-gnu/bin/../lib/gcc/nios2-elf/4.1.2/../../../../nios2-elf/lib/mno-hw-mul/libc.a(lib_a-fvwrite.o)
 .debug_ranges  0x000002e8       0xa0 /opt/altera/13.0sp1/nios2eds/bin/gnu/H-i686-pc-linux-gnu/bin/../lib/gcc/nios2-elf/4.1.2/../../../../nios2-elf/lib/mno-hw-mul/libc.a(lib_a-fwalk.o)
 .debug_ranges  0x00000388       0x70 /opt/altera/13.0sp1/nios2eds/bin/gnu/H-i686-pc-linux-gnu/bin/../lib/gcc/nios2-elf/4.1.2/../../../../nios2-elf/lib/mno-hw-mul/libc.a(lib_a-mallocr.o)
 .debug_ranges  0x000003f8      0x110 /opt/altera/13.0sp1/nios2eds/bin/gnu/H-i686-pc-linux-gnu/bin/../lib/gcc/nios2-elf/4.1.2/../../../../nios2-elf/lib/mno-hw-mul/libc.a(lib_a-reallocr.o)
 .debug_ranges  0x00000508       0x38 /opt/altera/13.0sp1/nios2eds/bin/gnu/H-i686-pc-linux-gnu/bin/../lib/gcc/nios2-elf/4.1.2/../../../../nios2-elf/lib/mno-hw-mul/libc.a(lib_a-callocr.o)
 .debug_ranges  0x00000540      0x190 /opt/altera/13.0sp1/nios2eds/bin/gnu/H-i686-pc-linux-gnu/bin/../lib/gcc/nios2-elf/4.1.2/mno-hw-mul/libgcc.a(_udivdi3.o)
 .debug_ranges  0x000006d0      0x1c0 /opt/altera/13.0sp1/nios2eds/bin/gnu/H-i686-pc-linux-gnu/bin/../lib/gcc/nios2-elf/4.1.2/mno-hw-mul/libgcc.a(_umoddi3.o)
 .debug_ranges  0x00000890       0x30 /opt/altera/13.0sp1/nios2eds/bin/gnu/H-i686-pc-linux-gnu/bin/../lib/gcc/nios2-elf/4.1.2/mno-hw-mul/libgcc.a(_addsub_df.o)
 .debug_ranges  0x000008c0       0x88 /opt/altera/13.0sp1/nios2eds/bin/gnu/H-i686-pc-linux-gnu/bin/../lib/gcc/nios2-elf/4.1.2/mno-hw-mul/libgcc.a(_mul_df.o)
 .debug_ranges  0x00000948       0x88 /opt/altera/13.0sp1/nios2eds/bin/gnu/H-i686-pc-linux-gnu/bin/../lib/gcc/nios2-elf/4.1.2/mno-hw-mul/libgcc.a(_muldi3.o)
 .debug_ranges  0x000009d0       0x18 ../../bsp/mpsoc_hello_ucosii_q2//libucosii_bsp.a(alt_main.o)
 .debug_ranges  0x000009e8      0x1c8 ../../bsp/mpsoc_hello_ucosii_q2//libucosii_bsp.a(os_core.o)
 .debug_ranges  0x00000bb0       0x18 ../../bsp/mpsoc_hello_ucosii_q2//libucosii_bsp.a(os_mem.o)
 .debug_ranges  0x00000bc8       0x48 ../../bsp/mpsoc_hello_ucosii_q2//libucosii_bsp.a(os_q.o)
 .debug_ranges  0x00000c10       0x48 ../../bsp/mpsoc_hello_ucosii_q2//libucosii_bsp.a(os_sem.o)
 .debug_ranges  0x00000c58       0x60 ../../bsp/mpsoc_hello_ucosii_q2//libucosii_bsp.a(os_task.o)
 .debug_ranges  0x00000cb8       0x30 ../../bsp/mpsoc_hello_ucosii_q2//libucosii_bsp.a(os_tmr.o)
 .debug_ranges  0x00000ce8       0x20 ../../bsp/mpsoc_hello_ucosii_q2//libucosii_bsp.a(alt_sys_init.o)
 .debug_ranges  0x00000d08      0x110 ../../bsp/mpsoc_hello_ucosii_q2//libucosii_bsp.a(altera_avalon_jtag_uart_init.o)
 .debug_ranges  0x00000e18       0x58 ../../bsp/mpsoc_hello_ucosii_q2//libucosii_bsp.a(altera_avalon_jtag_uart_read.o)
 .debug_ranges  0x00000e70       0x88 ../../bsp/mpsoc_hello_ucosii_q2//libucosii_bsp.a(altera_avalon_jtag_uart_write.o)
 .debug_ranges  0x00000ef8       0xa0 ../../bsp/mpsoc_hello_ucosii_q2//libucosii_bsp.a(altera_avalon_mutex.o)
 .debug_ranges  0x00000f98       0x18 ../../bsp/mpsoc_hello_ucosii_q2//libucosii_bsp.a(altera_avalon_timer_sc.o)
 .debug_ranges  0x00000fb0       0x18 ../../bsp/mpsoc_hello_ucosii_q2//libucosii_bsp.a(alt_dev_llist_insert.o)
 .debug_ranges  0x00000fc8       0x30 ../../bsp/mpsoc_hello_ucosii_q2//libucosii_bsp.a(alt_open.o)
 .debug_ranges  0x00000ff8       0x40 ../../bsp/mpsoc_hello_ucosii_q2//libucosii_bsp.a(alt_get_fd.o)
 .debug_ranges  0x00001038       0x28 ../../bsp/mpsoc_hello_ucosii_q2//libucosii_bsp.a(alt_irq_entry.o)
 .debug_ranges  0x00001060       0x18 ../../bsp/mpsoc_hello_ucosii_q2//libucosii_bsp.a(alt_irq_handler.o)
 .debug_ranges  0x00001078       0x30 ../../bsp/mpsoc_hello_ucosii_q2//libucosii_bsp.a(alt_exception_entry.o)
 .debug_ranges  0x000010a8       0x18 /opt/altera/13.0sp1/nios2eds/bin/gnu/H-i686-pc-linux-gnu/bin/../lib/gcc/nios2-elf/4.1.2/../../../../nios2-elf/lib/mno-hw-mul/libc.a(lib_a-__call_atexit.o)
